(lp0
(lp1
(VTHE
p2
S'DT'
p3
tp4
a(VPREMATURE
p5
S'NNP'
p6
tp7
a(VBURIAL
p8
g6
tp9
a(V.
p10
S'.'
p11
tp12
a(S'\n'
p13
S'NL'
p14
tp15
aa(lp16
(VBY
p17
S'IN'
p18
tp19
a(VEDGAR
p20
g6
tp21
a(VA.
p22
g6
tp23
a(VPOE
p24
g6
tp25
a(V,
p26
S','
p27
tp28
a(VESQ.
p29
g6
tp30
a(g26
g27
tp31
a(VAUTHOR
p32
g6
tp33
a(VOF
p34
g6
tp35
a(VTHE
p36
g6
tp37
a(VPOPULAR
p38
g6
tp39
a(VPRIZE
p40
g6
tp41
a(VSTORY
p42
g6
tp43
a(g26
g27
tp44
a(V``
p45
S'``'
p46
tp47
a(VTHE
p48
g3
tp49
ag15
aa(lp50
(VGOLD-BUG
p51
S'JJ'
p52
tp53
a(g26
g27
tp54
a(V''
p55
S"''"
p56
tp57
a(V&
p58
S'CC'
p59
tp60
a(Vc
p61
S'NN'
p62
tp63
a(g10
g11
tp64
ag15
aa(lp65
(VThere
p66
S'EX'
p67
tp68
a(Vare
p69
S'VBP'
p70
tp71
a(Vcertain
p72
g52
tp73
a(Vthemes
p74
S'NNS'
p75
tp76
a(Vof
p77
g18
tp78
a(Vwhich
p79
S'WDT'
p80
tp81
a(Vthe
p82
g3
tp83
a(Vinterest
p84
g62
tp85
a(Vis
p86
S'VBZ'
p87
tp88
a(Vall-absorbing
p89
g52
tp90
a(g26
g27
tp91
a(Vbut
p92
g59
tp93
ag15
aa(lp94
(Vwhich
p95
g80
tp96
a(Vare
p97
g70
tp98
a(Vtoo
p99
S'RB'
p100
tp101
a(Ventirely
p102
g100
tp103
a(Vhorrible
p104
g52
tp105
a(Vfor
p106
g18
tp107
a(Vthe
p108
g3
tp109
a(Vpurposes
p110
g75
tp111
a(Vof
p112
g18
tp113
a(Vlegitimate
p114
g52
tp115
a(Vfiction
p116
g62
tp117
a(g10
g11
tp118
ag15
aa(lp119
(VThese
p120
g3
tp121
a(Vthe
p122
g3
tp123
a(Vmere
p124
g52
tp125
a(Vromanticist
p126
g62
tp127
a(Vmust
p128
S'MD'
p129
tp130
a(Veschew
p131
S'VB'
p132
tp133
a(g26
g27
tp134
a(Vif
p135
g18
tp136
a(Vhe
p137
S'PRP'
p138
tp139
a(Vdo
p140
g70
tp141
a(Vnot
p142
g100
tp143
a(Vwish
p144
g132
tp145
a(Vto
p146
S'TO'
p147
tp148
a(Voffend
p149
g132
tp150
a(g26
g27
tp151
a(Vor
p152
g59
tp153
ag15
aa(lp154
(Vto
p155
g147
tp156
a(Vdisgust
p157
g132
tp158
a(g10
g11
tp159
a(VThey
p160
g138
tp161
a(Vare
p162
g70
tp163
a(Vwith
p164
g18
tp165
a(Vpropriety
p166
g62
tp167
a(Vhandled
p168
S'VBN'
p169
tp170
a(g26
g27
tp171
a(Vonly
p172
g100
tp173
a(Vwhen
p174
S'WRB'
p175
tp176
a(Vthe
p177
g3
tp178
a(Vseverity
p179
g62
tp180
a(Vand
p181
g59
tp182
ag15
aa(lp183
(Vmajesty
p184
g62
tp185
a(Vof
p186
g18
tp187
a(VTruth
p188
g6
tp189
a(Vsanctify
p190
g62
tp191
a(Vand
p192
g59
tp193
a(Vsustain
p194
g62
tp195
a(Vthem
p196
g138
tp197
a(g10
g11
tp198
a(VWe
p199
g138
tp200
a(Vthrill
p201
g70
tp202
a(g26
g27
tp203
a(Vfor
p204
g18
tp205
a(Vexample
p206
g62
tp207
a(g26
g27
tp208
a(Vwith
p209
g18
tp210
ag15
aa(lp211
(Vthe
p212
g3
tp213
a(Vmost
p214
S'RBS'
p215
tp216
a(Vintense
p217
g52
tp218
a(Vof
p219
g18
tp220
a(V``
p221
g46
tp222
a(Vpleasurable
p223
g52
tp224
a(Vpain
p225
g62
tp226
a(g26
g27
tp227
a(V''
p228
g56
tp229
a(Vover
p230
g18
tp231
a(Vthe
p232
g3
tp233
a(Vaccounts
p234
g75
tp235
a(Vof
p236
g18
tp237
a(Vthe
p238
g3
tp239
a(VPassage
p240
g6
tp241
ag15
aa(lp242
(Vof
p243
g18
tp244
a(Vthe
p245
g3
tp246
a(VBeresina
p247
g6
tp248
a(g26
g27
tp249
a(Vof
p250
g18
tp251
a(Vthe
p252
g3
tp253
a(VEarthquake
p254
g6
tp255
a(Vat
p256
g18
tp257
a(VLisbon
p258
g6
tp259
a(g26
g27
tp260
a(Vof
p261
g18
tp262
a(Vthe
p263
g3
tp264
a(VPlague
p265
g6
tp266
a(Vat
p267
g18
tp268
a(VLondon,
p269
g6
tp270
ag15
aa(lp271
(Vof
p272
g18
tp273
a(Vthe
p274
g3
tp275
a(VMassacre
p276
g6
tp277
a(Vof
p278
g18
tp279
a(VSt.
p280
g6
tp281
a(VBartholomew
p282
g6
tp283
a(g26
g27
tp284
a(Vor
p285
g59
tp286
a(Vof
p287
g18
tp288
a(Vthe
p289
g3
tp290
a(Vstifling
p291
g62
tp292
a(Vof
p293
g18
tp294
a(Vthe
p295
g3
tp296
a(Vhundred
p297
g169
tp298
ag15
aa(lp299
(Vand
p300
g59
tp301
a(Vtwenty-three
p302
g52
tp303
a(Vprisoners
p304
g75
tp305
a(Vin
p306
g18
tp307
a(Vthe
p308
g3
tp309
a(VBlack
p310
g6
tp311
a(VHole
p312
g6
tp313
a(Vat
p314
g18
tp315
a(VCalcutta
p316
g6
tp317
a(g10
g11
tp318
a(VBut
p319
g59
tp320
a(g26
g27
tp321
a(Vin
p322
g18
tp323
a(Vthese
p324
g3
tp325
ag15
aa(lp326
(Vaccounts
p327
g75
tp328
a(g26
g27
tp329
a(Vit
p330
g138
tp331
a(Vis
p332
g87
tp333
a(Vthe
p334
g3
tp335
a(Vfact
p336
g62
tp337
a(Vit
p338
g138
tp339
a(Vis
p340
g87
tp341
a(Vthe
p342
g3
tp343
a(Vreality
p344
g62
tp345
a(Vit
p346
g138
tp347
a(Vis
p348
g87
tp349
a(Vthe
p350
g3
tp351
a(Vhistory
p352
g62
tp353
a(Vwhich
p354
g80
tp355
ag15
aa(lp356
(Vexcites
p357
g75
tp358
a(g10
g11
tp359
a(VAs
p360
g18
tp361
a(Vinventions
p362
g75
tp363
a(g26
g27
tp364
a(Vwe
p365
g138
tp366
a(Vshould
p367
g129
tp368
a(Vregard
p369
g132
tp370
a(Vthem
p371
g138
tp372
a(Vwith
p373
g18
tp374
a(Vsimple
p375
g52
tp376
a(Vabhorrence
p377
g62
tp378
a(g10
g11
tp379
ag15
aa(lp380
(VI
p381
g138
tp382
a(Vhave
p383
g70
tp384
a(Vmentioned
p385
g169
tp386
a(Vsome
p387
g3
tp388
a(Vfew
p389
g52
tp390
a(Vof
p391
g18
tp392
a(Vthe
p393
g3
tp394
a(Vmore
p395
S'RBR'
p396
tp397
a(Vprominent
p398
g52
tp399
a(Vand
p400
g59
tp401
a(Vaugust
p402
g52
tp403
a(Vcalamities
p404
g75
tp405
ag15
aa(lp406
(Vupon
p407
g18
tp408
a(Vrecord
p409
g62
tp410
a(V;
p411
S':'
p412
tp413
a(Vbut
p414
g59
tp415
a(g26
g27
tp416
a(Vin
p417
g18
tp418
a(Vthese
p419
g3
tp420
a(g26
g27
tp421
a(Vit
p422
g138
tp423
a(Vis
p424
g87
tp425
a(Vthe
p426
g3
tp427
a(Vextent
p428
g62
tp429
a(g26
g27
tp430
a(Vnot
p431
g100
tp432
a(Vless
p433
S'JJR'
p434
tp435
a(Vthan
p436
g18
tp437
a(Vthe
p438
g3
tp439
ag15
aa(lp440
(Vcharacter
p441
g62
tp442
a(Vof
p443
g18
tp444
a(Vthe
p445
g3
tp446
a(Vcalamity
p447
g62
tp448
a(g26
g27
tp449
a(Vwhich
p450
g80
tp451
a(Vso
p452
g100
tp453
a(Vvividly
p454
g100
tp455
a(Vimpresses
p456
g87
tp457
a(Vthe
p458
g3
tp459
a(Vfancy
p460
g62
tp461
a(g10
g11
tp462
a(g381
g138
tp463
a(Vneed
p464
g70
tp465
ag15
aa(lp466
(Vnot
p467
g100
tp468
a(Vremind
p469
g70
tp470
a(Vthe
p471
g3
tp472
a(Vreader
p473
g62
tp474
a(Vthat
p475
g18
tp476
a(g26
g27
tp477
a(Vfrom
p478
g18
tp479
a(Vthe
p480
g3
tp481
a(Vlong
p482
g52
tp483
a(Vand
p484
g59
tp485
a(Vwierd
p486
g62
tp487
a(V[
p488
g412
tp489
a(g488
g412
tp490
a(Vweird
p491
g52
tp492
a(V]
p493
g62
tp494
a(g493
g412
tp495
a(Vcatalogue
p496
g62
tp497
ag15
aa(lp498
(Vof
p499
g18
tp500
a(Vhuman
p501
g52
tp502
a(Vmiseries
p503
g75
tp504
a(g26
g27
tp505
a(g381
g138
tp506
a(Vmight
p507
g129
tp508
a(Vhave
p509
g132
tp510
a(Vselected
p511
g169
tp512
a(Vmany
p513
g52
tp514
a(Vindividual
p515
g52
tp516
a(Vinstances
p517
g75
tp518
a(Vmore
p519
g396
tp520
ag15
aa(lp521
(Vreplete
p522
g52
tp523
a(Vwith
p524
g18
tp525
a(Vessential
p526
g52
tp527
a(Vsuffering
p528
g62
tp529
a(Vthan
p530
g18
tp531
a(Vany
p532
g3
tp533
a(Vof
p534
g18
tp535
a(Vthese
p536
g3
tp537
a(Vvast
p538
g52
tp539
a(Vgeneralities
p540
g75
tp541
a(Vof
p542
g18
tp543
ag15
aa(lp544
(Vdisaster
p545
g62
tp546
a(g10
g11
tp547
a(VThe
p548
g3
tp549
a(Vtrue
p550
g52
tp551
a(Vwretchedness
p552
g62
tp553
a(g26
g27
tp554
a(Vindeed
p555
g100
tp556
a(Vthe
p557
g3
tp558
a(Vultimate
p559
g52
tp560
a(Vwoe
p561
g62
tp562
a(Vis
p563
g87
tp564
ag15
aa(lp565
(Vparticular
p566
g52
tp567
a(g26
g27
tp568
a(Vnot
p569
g100
tp570
a(Vdiffuse
p571
g132
tp572
a(g10
g11
tp573
a(VThat
p574
g3
tp575
a(Vthe
p576
g3
tp577
a(Vghastly
p578
g100
tp579
a(Vextremes
p580
g87
tp581
a(Vof
p582
g18
tp583
a(Vagony
p584
g62
tp585
a(Vare
p586
g70
tp587
a(Vendured
p588
g169
tp589
ag15
aa(lp590
(Vby
p591
g18
tp592
a(Vman
p593
g62
tp594
a(Vthe
p595
g3
tp596
a(Vunit
p597
g62
tp598
a(g26
g27
tp599
a(Vand
p600
g59
tp601
a(Vnever
p602
g100
tp603
a(Vby
p604
g18
tp605
a(Vman
p606
g62
tp607
a(Vthe
p608
g3
tp609
a(Vmass
p610
g62
tp611
a(Vfor
p612
g18
tp613
a(Vthis
p614
g3
tp615
a(Vlet
p616
g62
tp617
a(Vus
p618
g138
tp619
a(Vthank
p620
S'VBD'
p621
tp622
a(Va
p623
g3
tp624
ag15
aa(lp625
(Vmerciful
p626
g52
tp627
a(VGod
p628
g6
tp629
a(V!
p630
g11
tp631
ag15
aa(lp632
(VTo
p633
g147
tp634
a(Vbe
p635
g132
tp636
a(Vburied
p637
g169
tp638
a(Vwhile
p639
g18
tp640
a(Valive
p641
g52
tp642
a(g26
g27
tp643
a(Vis
p644
g87
tp645
a(g26
g27
tp646
a(Vbeyond
p647
g18
tp648
a(Vquestion
p649
g62
tp650
a(g26
g27
tp651
a(Vthe
p652
g3
tp653
a(Vmost
p654
g215
tp655
a(Vterrific
p656
g52
tp657
a(Vof
p658
g18
tp659
ag15
aa(lp660
(Vthese
p661
g3
tp662
a(Vextremes
p663
g75
tp664
a(Vwhich
p665
g80
tp666
a(Vhas
p667
g87
tp668
a(Vever
p669
g100
tp670
a(Vfallen
p671
g169
tp672
a(Vto
p673
g147
tp674
a(Vthe
p675
g3
tp676
a(Vlot
p677
g62
tp678
a(Vof
p679
g18
tp680
a(Vmere
p681
g62
tp682
a(Vmortality
p683
g62
tp684
a(g10
g11
tp685
a(VThat
p686
g3
tp687
ag15
aa(lp688
(Vit
p689
g138
tp690
a(Vhas
p691
g87
tp692
a(Vfrequently
p693
g100
tp694
a(g26
g27
tp695
a(Vvery
p696
g100
tp697
a(Vfrequently
p698
g100
tp699
a(g26
g27
tp700
a(Vso
p701
g100
tp702
a(Vfallen
p703
g169
tp704
a(g26
g27
tp705
a(Vwill
p706
g129
tp707
a(Vscarcely
p708
g100
tp709
a(Vbe
p710
g132
tp711
a(Vdenied
p712
g169
tp713
ag15
aa(lp714
(Vby
p715
g18
tp716
a(Vthose
p717
g3
tp718
a(Vwho
p719
S'WP'
p720
tp721
a(Vthink
p722
g70
tp723
a(g10
g11
tp724
a(VThe
p725
g3
tp726
a(Vboundaries
p727
g75
tp728
a(Vwhich
p729
g80
tp730
a(Vdivide
p731
g70
tp732
a(VLife
p733
g6
tp734
a(Vfrom
p735
g18
tp736
a(VDeath
p737
g6
tp738
a(g26
g27
tp739
a(Vare
p740
g70
tp741
a(Vat
p742
g18
tp743
ag15
aa(lp744
(Vbest
p745
S'JJS'
p746
tp747
a(Vshadowy
p748
g62
tp749
a(Vand
p750
g59
tp751
a(Vvague
p752
g52
tp753
a(g10
g11
tp754
a(VWho
p755
g720
tp756
a(Vshall
p757
g129
tp758
a(Vsay
p759
g132
tp760
a(Vwhere
p761
g175
tp762
a(Vthe
p763
g3
tp764
a(Vone
p765
S'CD'
p766
tp767
a(Vends
p768
g75
tp769
a(g26
g27
tp770
a(Vand
p771
g59
tp772
a(Vwhere
p773
g175
tp774
a(Vthe
p775
g3
tp776
ag15
aa(lp777
(Vother
p778
g52
tp779
a(Vbegins
p780
g75
tp781
a(V?
p782
g11
tp783
a(VWe
p784
g138
tp785
a(Vknow
p786
g70
tp787
a(Vthat
p788
g18
tp789
a(Vthere
p790
g67
tp791
a(Vare
p792
g70
tp793
a(Vdiseases
p794
g75
tp795
a(Vin
p796
g18
tp797
a(Vwhich
p798
g80
tp799
a(Voccur
p800
g62
tp801
a(Vtotal
p802
g70
tp803
ag15
aa(lp804
(Vcessations
p805
g75
tp806
a(Vof
p807
g18
tp808
a(Vall
p809
g3
tp810
a(Vthe
p811
g3
tp812
a(Vapparent
p813
g52
tp814
a(Vfunctions
p815
g75
tp816
a(Vof
p817
g18
tp818
a(Vvitality
p819
g62
tp820
a(g26
g27
tp821
a(Vand
p822
g59
tp823
a(Vyet
p824
g100
tp825
a(Vin
p826
g18
tp827
a(Vwhich
p828
g80
tp829
ag15
aa(lp830
(Vthese
p831
g3
tp832
a(Vcessations
p833
g75
tp834
a(Vare
p835
g70
tp836
a(Vmerely
p837
g100
tp838
a(Vsuspensions
p839
g75
tp840
a(g26
g27
tp841
a(Vproperly
p842
g100
tp843
a(Vso
p844
g100
tp845
a(Vcalled
p846
g169
tp847
a(g10
g11
tp848
a(VThey
p849
g138
tp850
a(Vare
p851
g70
tp852
ag15
aa(lp853
(Vonly
p854
g100
tp855
a(Vtemporary
p856
g52
tp857
a(Vpauses
p858
g75
tp859
a(Vin
p860
g18
tp861
a(Vthe
p862
g3
tp863
a(Vincomprehensible
p864
g52
tp865
a(Vmechanism
p866
g62
tp867
a(g10
g11
tp868
a(VA
p869
g3
tp870
a(Vcertain
p871
g52
tp872
ag15
aa(lp873
(Vperiod
p874
g62
tp875
a(Velapses
p876
g75
tp877
a(g26
g27
tp878
a(Vand
p879
g59
tp880
a(Vsome
p881
g3
tp882
a(Vunseen
p883
g62
tp884
a(Vmysterious
p885
g52
tp886
a(Vprinciple
p887
g62
tp888
a(Vagain
p889
g100
tp890
a(Vsets
p891
g87
tp892
a(Vin
p893
g18
tp894
ag15
aa(lp895
(Vmotion
p896
g62
tp897
a(Vthe
p898
g3
tp899
a(Vmagic
p900
g52
tp901
a(Vpinions
p902
g75
tp903
a(Vand
p904
g59
tp905
a(Vthe
p906
g3
tp907
a(Vwizard
p908
g62
tp909
a(Vwheels
p910
g75
tp911
a(g10
g11
tp912
a(VThe
p913
g3
tp914
a(Vsilver
p915
g62
tp916
a(Vcord
p917
g62
tp918
a(Vwas
p919
g621
tp920
a(Vnot
p921
g100
tp922
ag15
aa(lp923
(Vforever
p924
g62
tp925
a(Vloosed
p926
g621
tp927
a(g26
g27
tp928
a(Vnor
p929
g59
tp930
a(Vthe
p931
g3
tp932
a(Vgolden
p933
g52
tp934
a(Vbowl
p935
g62
tp936
a(Virreparably
p937
g100
tp938
a(Vbroken
p939
g169
tp940
a(g10
g11
tp941
a(VBut
p942
g59
tp943
a(Vwhere,
p944
g52
tp945
ag15
aa(lp946
(Vmeantime
p947
g62
tp948
a(g26
g27
tp949
a(Vwas
p950
g621
tp951
a(Vthe
p952
g3
tp953
a(Vsoul
p954
g62
tp955
a(g782
g11
tp956
ag15
aa(lp957
(VApart
p958
g6
tp959
a(g26
g27
tp960
a(Vhowever
p961
g100
tp962
a(g26
g27
tp963
a(Vfrom
p964
g18
tp965
a(Vthe
p966
g3
tp967
a(Vinevitable
p968
g52
tp969
a(Vconclusion
p970
g62
tp971
a(g26
g27
tp972
a(V/a
p973
g6
tp974
a(Vpriori/
p975
g6
tp976
a(g26
g27
tp977
a(Vthat
p978
g18
tp979
a(Vsuch
p980
g52
tp981
ag15
aa(lp982
(Vcauses
p983
g75
tp984
a(Vmust
p985
g129
tp986
a(Vproduce
p987
g132
tp988
a(Vsuch
p989
g52
tp990
a(Veffects
p991
g75
tp992
a(Vthat
p993
g80
tp994
a(Vthe
p995
g3
tp996
a(Vwell
p997
g100
tp998
a(Vknown
p999
g169
tp1000
a(Voccurrence
p1001
g62
tp1002
a(Vof
p1003
g18
tp1004
ag15
aa(lp1005
(Vsuch
p1006
g52
tp1007
a(Vcases
p1008
g75
tp1009
a(Vof
p1010
g18
tp1011
a(Vsuspended
p1012
g169
tp1013
a(Vanimation
p1014
g62
tp1015
a(Vmust
p1016
g129
tp1017
a(Vnaturally
p1018
g100
tp1019
a(Vgive
p1020
g132
tp1021
a(Vrise
p1022
g62
tp1023
a(g26
g27
tp1024
a(Vnow
p1025
g100
tp1026
a(Vand
p1027
g59
tp1028
ag15
aa(lp1029
(Vthen
p1030
g100
tp1031
a(g26
g27
tp1032
a(Vto
p1033
g147
tp1034
a(Vpremature
p1035
g132
tp1036
a(Vinterments
p1037
g75
tp1038
a(Vapart
p1039
g132
tp1040
a(Vfrom
p1041
g18
tp1042
a(Vthis
p1043
g3
tp1044
a(Vconsideration
p1045
g62
tp1046
a(g26
g27
tp1047
a(Vwe
p1048
g138
tp1049
a(Vhave
p1050
g70
tp1051
ag15
aa(lp1052
(Vthe
p1053
g3
tp1054
a(Vdirect
p1055
g52
tp1056
a(Vtestimony
p1057
g62
tp1058
a(Vof
p1059
g18
tp1060
a(Vmedical
p1061
g52
tp1062
a(Vand
p1063
g59
tp1064
a(Vordinary
p1065
g52
tp1066
a(Vexperience
p1067
g62
tp1068
a(g26
g27
tp1069
a(Vto
p1070
g147
tp1071
a(Vprove
p1072
g132
tp1073
a(Vthat
p1074
g18
tp1075
a(g623
g3
tp1076
ag15
aa(lp1077
(Vvast
p1078
g62
tp1079
a(Vnumber
p1080
g62
tp1081
a(Vof
p1082
g18
tp1083
a(Vsuch
p1084
g52
tp1085
a(Vinterments
p1086
g75
tp1087
a(Vhave
p1088
g70
tp1089
a(Vactually
p1090
g100
tp1091
a(Vtaken
p1092
g169
tp1093
a(Vplace
p1094
g62
tp1095
a(g10
g11
tp1096
a(g381
g138
tp1097
a(Vmight
p1098
g129
tp1099
a(Vrefer,
p1100
g132
tp1101
ag15
aa(lp1102
(Vat
p1103
g18
tp1104
a(Vonce
p1105
g100
tp1106
a(g26
g27
tp1107
a(Vif
p1108
g18
tp1109
a(Vnecessary
p1110
g52
tp1111
a(g26
g27
tp1112
a(Vto
p1113
g147
tp1114
a(g623
g3
tp1115
a(Vhundred
p1116
g766
tp1117
a(Vwell
p1118
g100
tp1119
a(Vauthenticated
p1120
g169
tp1121
a(Vinstances
p1122
g75
tp1123
a(g10
g11
tp1124
a(VOne
p1125
g766
tp1126
a(Vof
p1127
g18
tp1128
ag15
aa(lp1129
(Vvery
p1130
g100
tp1131
a(Vremarkable
p1132
g52
tp1133
a(Vcharacter
p1134
g62
tp1135
a(g26
g27
tp1136
a(Vand
p1137
g59
tp1138
a(Vof
p1139
g18
tp1140
a(Vwhich
p1141
g80
tp1142
a(Vthe
p1143
g3
tp1144
a(Vcircumstances
p1145
g75
tp1146
a(Vmay
p1147
g129
tp1148
a(Vbe
p1149
g132
tp1150
a(Vfresh
p1151
g52
tp1152
ag15
aa(lp1153
(Vin
p1154
g18
tp1155
a(Vthe
p1156
g3
tp1157
a(Vmemory
p1158
g62
tp1159
a(Vof
p1160
g18
tp1161
a(Vsome
p1162
g3
tp1163
a(Vof
p1164
g18
tp1165
a(Vmy
p1166
S'PRP$'
p1167
tp1168
a(Vreaders
p1169
g75
tp1170
a(g26
g27
tp1171
a(Voccurred
p1172
g621
tp1173
a(g26
g27
tp1174
a(Vnot
p1175
g100
tp1176
a(Vvery
p1177
g100
tp1178
a(Vlong
p1179
g100
tp1180
a(Vago
p1181
g100
tp1182
a(g26
g27
tp1183
a(Vin
p1184
g18
tp1185
a(Vthe
p1186
g3
tp1187
ag15
aa(lp1188
(Vneighboring
p1189
S'VBG'
p1190
tp1191
a(Vcity
p1192
g62
tp1193
a(Vof
p1194
g18
tp1195
a(VBaltimore
p1196
g6
tp1197
a(g26
g27
tp1198
a(Vwhere
p1199
g175
tp1200
a(Vit
p1201
g138
tp1202
a(Voccasioned
p1203
g621
tp1204
a(g623
g3
tp1205
a(Vpainful
p1206
g52
tp1207
a(g26
g27
tp1208
a(Vintense,
p1209
g52
tp1210
ag15
aa(lp1211
(Vand
p1212
g59
tp1213
a(Vwidely
p1214
g100
tp1215
a(Vextended
p1216
g621
tp1217
a(Vexcitement
p1218
g62
tp1219
a(g10
g11
tp1220
a(VThe
p1221
g3
tp1222
a(Vwife
p1223
g62
tp1224
a(Vof
p1225
g18
tp1226
a(Vone
p1227
g766
tp1228
a(Vof
p1229
g18
tp1230
a(Vthe
p1231
g3
tp1232
a(Vmost
p1233
g215
tp1234
a(Vrespectable
p1235
g52
tp1236
ag15
aa(lp1237
(Vcitizens
p1238
g75
tp1239
a(g623
g3
tp1240
a(Vlawyer
p1241
g62
tp1242
a(Vof
p1243
g18
tp1244
a(Veminence
p1245
g62
tp1246
a(Vand
p1247
g59
tp1248
a(g623
g3
tp1249
a(Vmember
p1250
g62
tp1251
a(Vof
p1252
g18
tp1253
a(VCongress
p1254
g6
tp1255
a(Vwas
p1256
g621
tp1257
a(Vseized
p1258
g169
tp1259
ag15
aa(lp1260
(Vwith
p1261
g18
tp1262
a(g623
g3
tp1263
a(Vsudden
p1264
g52
tp1265
a(Vand
p1266
g59
tp1267
a(Vunaccountable
p1268
g52
tp1269
a(Villness
p1270
g62
tp1271
a(g26
g27
tp1272
a(Vwhich
p1273
g80
tp1274
a(Vcompletely
p1275
g100
tp1276
a(Vbaffled
p1277
g621
tp1278
a(Vthe
p1279
g3
tp1280
ag15
aa(lp1281
(Vskill
p1282
g62
tp1283
a(Vof
p1284
g18
tp1285
a(Vher
p1286
g1167
tp1287
a(Vphysicians
p1288
g75
tp1289
a(g10
g11
tp1290
a(VAfter
p1291
g18
tp1292
a(Vmuch
p1293
g52
tp1294
a(Vsuffering
p1295
g62
tp1296
a(Vshe
p1297
g138
tp1298
a(Vdied
p1299
g621
tp1300
a(g26
g27
tp1301
a(Vor
p1302
g59
tp1303
a(Vwas
p1304
g621
tp1305
a(Vsupposed
p1306
g169
tp1307
ag15
aa(lp1308
(Vto
p1309
g147
tp1310
a(Vdie
p1311
g132
tp1312
a(g10
g11
tp1313
a(VNo
p1314
g3
tp1315
a(Vone
p1316
g62
tp1317
a(Vsuspected
p1318
g169
tp1319
a(g26
g27
tp1320
a(Vindeed
p1321
g100
tp1322
a(g26
g27
tp1323
a(Vor
p1324
g59
tp1325
a(Vhad
p1326
g621
tp1327
a(Vreason
p1328
g62
tp1329
a(Vto
p1330
g147
tp1331
a(Vsuspect
p1332
g132
tp1333
a(g26
g27
tp1334
a(Vthat
p1335
g18
tp1336
a(Vshe
p1337
g138
tp1338
a(Vwas
p1339
g621
tp1340
ag15
aa(lp1341
(Vnot
p1342
g100
tp1343
a(Vactually
p1344
g100
tp1345
a(Vdead
p1346
g52
tp1347
a(g10
g11
tp1348
a(VShe
p1349
g138
tp1350
a(Vpresented
p1351
g621
tp1352
a(Vall
p1353
S'PDT'
p1354
tp1355
a(Vthe
p1356
g3
tp1357
a(Vordinary
p1358
g52
tp1359
a(Vappearances
p1360
g75
tp1361
a(Vof
p1362
g18
tp1363
a(Vdeath
p1364
g62
tp1365
a(g10
g11
tp1366
ag15
aa(lp1367
(VThe
p1368
g3
tp1369
a(Vface
p1370
g62
tp1371
a(Vassumed
p1372
g621
tp1373
a(Vthe
p1374
g3
tp1375
a(Vusual
p1376
g52
tp1377
a(Vpinched
p1378
g52
tp1379
a(Vand
p1380
g59
tp1381
a(Vsunken
p1382
g169
tp1383
a(Voutline
p1384
g62
tp1385
a(g10
g11
tp1386
a(VThe
p1387
g3
tp1388
a(Vlips
p1389
g75
tp1390
a(Vwere
p1391
g621
tp1392
a(Vof
p1393
g18
tp1394
ag15
aa(lp1395
(Vthe
p1396
g3
tp1397
a(Vusual
p1398
g52
tp1399
a(Vmarble
p1400
g52
tp1401
a(Vpallor
p1402
g62
tp1403
a(g10
g11
tp1404
a(VThe
p1405
g3
tp1406
a(Veyes
p1407
g75
tp1408
a(Vwere
p1409
g621
tp1410
a(Vlustreless
p1411
g62
tp1412
a(g10
g11
tp1413
a(VThere
p1414
g67
tp1415
a(Vwas
p1416
g621
tp1417
a(Vno
p1418
g3
tp1419
a(Vwarmth
p1420
g62
tp1421
a(g10
g11
tp1422
ag15
aa(lp1423
(VPulsation
p1424
g62
tp1425
a(Vhad
p1426
g621
tp1427
a(Vceased
p1428
g169
tp1429
a(g10
g11
tp1430
a(VFor
p1431
g18
tp1432
a(Vthree
p1433
g766
tp1434
a(Vdays
p1435
g75
tp1436
a(Vthe
p1437
g3
tp1438
a(Vbody
p1439
g62
tp1440
a(Vwas
p1441
g621
tp1442
a(Vpreserved
p1443
g169
tp1444
a(Vunburied,
p1445
S'-NONE-'
p1446
tp1447
ag15
aa(lp1448
(Vduring
p1449
g18
tp1450
a(Vwhich
p1451
g80
tp1452
a(Vit
p1453
g138
tp1454
a(Vhad
p1455
g621
tp1456
a(Vacquired
p1457
g169
tp1458
a(g623
g3
tp1459
a(Vstony
p1460
g62
tp1461
a(Vrigidity
p1462
g62
tp1463
a(g10
g11
tp1464
a(VThe
p1465
g3
tp1466
a(Vfuneral
p1467
g52
tp1468
a(g26
g27
tp1469
a(Vin
p1470
g18
tp1471
a(Vshort,
p1472
g6
tp1473
ag15
aa(lp1474
(Vwas
p1475
g621
tp1476
a(Vhastened
p1477
g169
tp1478
a(g26
g27
tp1479
a(Von
p1480
g18
tp1481
a(Vaccount
p1482
g62
tp1483
a(Vof
p1484
g18
tp1485
a(Vthe
p1486
g3
tp1487
a(Vrapid
p1488
g52
tp1489
a(Vadvance
p1490
g62
tp1491
a(Vof
p1492
g18
tp1493
a(Vwhat
p1494
g720
tp1495
a(Vwas
p1496
g621
tp1497
a(Vsupposed
p1498
g169
tp1499
a(Vto
p1500
g147
tp1501
a(Vbe
p1502
g132
tp1503
ag15
aa(lp1504
(Vdecomposition
p1505
g62
tp1506
a(g10
g11
tp1507
ag15
aa(lp1508
(VThe
p1509
g3
tp1510
a(Vlady
p1511
g62
tp1512
a(Vwas
p1513
g621
tp1514
a(Vdeposited
p1515
g169
tp1516
a(Vin
p1517
g18
tp1518
a(Vher
p1519
g1167
tp1520
a(Vfamily
p1521
g62
tp1522
a(Vvault
p1523
g62
tp1524
a(g26
g27
tp1525
a(Vwhich
p1526
g80
tp1527
a(g26
g27
tp1528
a(Vfor
p1529
g18
tp1530
a(Vthree
p1531
g766
tp1532
a(Vsubsequent
p1533
g62
tp1534
ag15
aa(lp1535
(Vyears
p1536
g75
tp1537
a(g26
g27
tp1538
a(Vwas
p1539
g621
tp1540
a(Vundisturbed
p1541
g169
tp1542
a(g10
g11
tp1543
a(VAt
p1544
g18
tp1545
a(Vthe
p1546
g3
tp1547
a(Vexpiration
p1548
g62
tp1549
a(Vof
p1550
g18
tp1551
a(Vthis
p1552
g3
tp1553
a(Vterm
p1554
g62
tp1555
a(g26
g27
tp1556
a(Vit
p1557
g138
tp1558
a(Vwas
p1559
g621
tp1560
a(Vopened
p1561
g169
tp1562
ag15
aa(lp1563
(Vfor
p1564
g18
tp1565
a(Vthe
p1566
g3
tp1567
a(Vreception
p1568
g62
tp1569
a(Vof
p1570
g18
tp1571
a(g623
g3
tp1572
a(Vsarcophagus
p1573
g62
tp1574
a(g411
g412
tp1575
a(Vbut
p1576
g59
tp1577
a(g26
g27
tp1578
a(Valas
p1579
g75
tp1580
a(g630
g11
tp1581
a(Vhow
p1582
g175
tp1583
a(Vfearful
p1584
g52
tp1585
a(g623
g3
tp1586
a(Vshock
p1587
g62
tp1588
ag15
aa(lp1589
(Vawaited
p1590
g621
tp1591
a(Vthe
p1592
g3
tp1593
a(Vhusband
p1594
g62
tp1595
a(g26
g27
tp1596
a(Vwho
p1597
g720
tp1598
a(g26
g27
tp1599
a(Vpersonally
p1600
g100
tp1601
a(g26
g27
tp1602
a(Vthrew
p1603
g621
tp1604
a(Vopen
p1605
g52
tp1606
a(Vthe
p1607
g3
tp1608
a(Vdoor
p1609
g62
tp1610
a(g10
g11
tp1611
a(VAs
p1612
g18
tp1613
a(Vits
p1614
g1167
tp1615
ag15
aa(lp1616
(Vportals
p1617
g75
tp1618
a(Vswung
p1619
g70
tp1620
a(Voutwardly
p1621
g100
tp1622
a(Vback
p1623
g100
tp1624
a(g26
g27
tp1625
a(Vsome
p1626
g3
tp1627
a(Vwhite-apparelled
p1628
g52
tp1629
a(Vobject
p1630
g62
tp1631
a(Vfell
p1632
g621
tp1633
a(Vrattling
p1634
g1190
tp1635
ag15
aa(lp1636
(Vwithin
p1637
g18
tp1638
a(Vhis
p1639
g1167
tp1640
a(Varms
p1641
g75
tp1642
a(g10
g11
tp1643
a(V*
p1644
g1446
tp1645
a(g488
g46
tp1646
a(Vcolumn
p1647
g62
tp1648
a(V:
p1649
g412
tp1650
a(g493
g412
tp1651
a(g1644
g1446
tp1652
a(VIt
p1653
g138
tp1654
a(Vwas
p1655
g621
tp1656
a(Vthe
p1657
g3
tp1658
a(Vskeleton
p1659
g62
tp1660
a(Vof
p1661
g18
tp1662
a(Vhis
p1663
g1167
tp1664
a(Vwife
p1665
g62
tp1666
a(Vin
p1667
g18
tp1668
a(Vher
p1669
g1167
tp1670
ag15
aa(lp1671
(Vyet
p1672
g100
tp1673
a(Vunmoulded
p1674
g621
tp1675
a(Vshroud
p1676
g169
tp1677
a(g10
g11
tp1678
ag15
aa(lp1679
(g869
g3
tp1680
a(Vcareful
p1681
g52
tp1682
a(Vinvestigation
p1683
g62
tp1684
a(Vrendered
p1685
g621
tp1686
a(Vit
p1687
g138
tp1688
a(Vevident
p1689
g621
tp1690
a(Vthat
p1691
g18
tp1692
a(Vshe
p1693
g138
tp1694
a(Vhad
p1695
g621
tp1696
a(Vrevived
p1697
g169
tp1698
a(Vwithin
p1699
g18
tp1700
ag15
aa(lp1701
(Vtwo
p1702
g766
tp1703
a(Vdays
p1704
g75
tp1705
a(Vafter
p1706
g18
tp1707
a(Vher
p1708
g1167
tp1709
a(Ventombment
p1710
g62
tp1711
a(Vthat
p1712
g80
tp1713
a(Vher
p1714
g1167
tp1715
a(Vstruggles
p1716
g75
tp1717
a(Vwithin
p1718
g18
tp1719
a(Vthe
p1720
g3
tp1721
a(Vcoffin
p1722
g62
tp1723
a(Vhad
p1724
g621
tp1725
ag15
aa(lp1726
(Vcaused
p1727
g621
tp1728
a(Vit
p1729
g138
tp1730
a(Vto
p1731
g147
tp1732
a(Vfall
p1733
g132
tp1734
a(Vfrom
p1735
g18
tp1736
a(g623
g3
tp1737
a(Vledge
p1738
g62
tp1739
a(g26
g27
tp1740
a(Vor
p1741
g59
tp1742
a(Vshelf
p1743
g138
tp1744
a(g26
g27
tp1745
a(Vto
p1746
g147
tp1747
a(Vthe
p1748
g3
tp1749
a(Vfloor
p1750
g62
tp1751
a(g26
g27
tp1752
a(Vwhere
p1753
g175
tp1754
a(Vit
p1755
g138
tp1756
a(Vwas
p1757
g621
tp1758
a(Vso
p1759
g100
tp1760
ag15
aa(lp1761
(Vbroken
p1762
g169
tp1763
a(Vas
p1764
g18
tp1765
a(Vto
p1766
g147
tp1767
a(Vpermit
p1768
g132
tp1769
a(Vher
p1770
g1167
tp1771
a(Vescape
p1772
g62
tp1773
a(g10
g11
tp1774
a(g869
g3
tp1775
a(Vlamp
p1776
g62
tp1777
a(Vwhich
p1778
g80
tp1779
a(Vhad
p1780
g621
tp1781
a(Vbeen
p1782
g169
tp1783
a(Vaccidentally
p1784
g100
tp1785
a(Vleft,
p1786
g1446
tp1787
ag15
aa(lp1788
(Vfull
p1789
g52
tp1790
a(Vof
p1791
g18
tp1792
a(Voil
p1793
g62
tp1794
a(g26
g27
tp1795
a(Vwithin
p1796
g18
tp1797
a(Vthe
p1798
g3
tp1799
a(Vtomb
p1800
g62
tp1801
a(g26
g27
tp1802
a(Vwas
p1803
g621
tp1804
a(Vfound
p1805
g169
tp1806
a(Vempty
p1807
g62
tp1808
a(g411
g412
tp1809
a(Vit
p1810
g138
tp1811
a(Vmight
p1812
g129
tp1813
a(Vhave
p1814
g132
tp1815
a(Vbeen
p1816
g169
tp1817
ag15
aa(lp1818
(Vexhausted
p1819
g621
tp1820
a(g26
g27
tp1821
a(Vhowever
p1822
g100
tp1823
a(g26
g27
tp1824
a(Vby
p1825
g18
tp1826
a(Vevaporation
p1827
g62
tp1828
a(g10
g11
tp1829
a(VOn
p1830
g18
tp1831
a(Vthe
p1832
g3
tp1833
a(Vuppermost
p1834
g62
tp1835
a(Vof
p1836
g18
tp1837
a(Vthe
p1838
g3
tp1839
a(Vsteps
p1840
g75
tp1841
a(Vwhich
p1842
g80
tp1843
ag15
aa(lp1844
(Vled
p1845
g621
tp1846
a(Vdown
p1847
g169
tp1848
a(Vinto
p1849
g18
tp1850
a(Vthe
p1851
g3
tp1852
a(Vdread
p1853
g52
tp1854
a(Vchamber
p1855
g62
tp1856
a(g26
g27
tp1857
a(Vwas
p1858
g621
tp1859
a(g623
g3
tp1860
a(Vlarge
p1861
g52
tp1862
a(Vfragment
p1863
g62
tp1864
a(Vof
p1865
g18
tp1866
a(Vthe
p1867
g3
tp1868
a(Vcoffin,
p1869
g52
tp1870
ag15
aa(lp1871
(Vwith
p1872
g18
tp1873
a(Vwhich
p1874
g80
tp1875
a(g26
g27
tp1876
a(Vit
p1877
g138
tp1878
a(Vseemed
p1879
g621
tp1880
a(Vthat
p1881
g18
tp1882
a(Vshe
p1883
g138
tp1884
a(Vhad
p1885
g621
tp1886
a(Vendeavored
p1887
g169
tp1888
a(Vto
p1889
g147
tp1890
a(Varrest
p1891
g132
tp1892
a(Vattention
p1893
g62
tp1894
a(g26
g27
tp1895
a(Vby
p1896
g18
tp1897
ag15
aa(lp1898
(Vstriking
p1899
g1190
tp1900
a(Vthe
p1901
g3
tp1902
a(Viron
p1903
g62
tp1904
a(Vdoor
p1905
g62
tp1906
a(g10
g11
tp1907
a(VWhile
p1908
g18
tp1909
a(Vthus
p1910
g100
tp1911
a(Voccupied
p1912
g169
tp1913
a(g26
g27
tp1914
a(Vshe
p1915
g138
tp1916
a(Vprobably
p1917
g100
tp1918
a(Vswooned
p1919
g621
tp1920
a(g26
g27
tp1921
a(Vor
p1922
g59
tp1923
ag15
aa(lp1924
(Vpossibly
p1925
g100
tp1926
a(Vdied
p1927
g621
tp1928
a(g26
g27
tp1929
a(Vthrough
p1930
g18
tp1931
a(Vsheer
p1932
g62
tp1933
a(Vterror
p1934
g62
tp1935
a(g411
g412
tp1936
a(Vand
p1937
g59
tp1938
a(g26
g27
tp1939
a(Vin
p1940
g18
tp1941
a(Vfalling
p1942
g62
tp1943
a(g26
g27
tp1944
a(Vher
p1945
g1167
tp1946
a(Vshroud
p1947
g62
tp1948
a(Vbecame
p1949
g621
tp1950
ag15
aa(lp1951
(Ventangled
p1952
g621
tp1953
a(Vin
p1954
g18
tp1955
a(Vsome
p1956
g3
tp1957
a(Viron-work
p1958
g52
tp1959
a(Vwhich
p1960
g80
tp1961
a(Vprojected
p1962
g169
tp1963
a(Vinteriorly
p1964
g100
tp1965
a(g10
g11
tp1966
a(VThus
p1967
g100
tp1968
a(Vshe
p1969
g138
tp1970
ag15
aa(lp1971
(Vremained
p1972
g621
tp1973
a(g26
g27
tp1974
a(Vand
p1975
g59
tp1976
a(Vthus
p1977
g100
tp1978
a(Vshe
p1979
g138
tp1980
a(Vrotted
p1981
g621
tp1982
a(g26
g27
tp1983
a(Verect
p1984
g62
tp1985
a(g10
g11
tp1986
ag15
aa(lp1987
(VIn
p1988
g18
tp1989
a(Vthe
p1990
g3
tp1991
a(Vyear
p1992
g62
tp1993
a(g26
g27
tp1994
a(g623
g3
tp1995
a(Vcase
p1996
g62
tp1997
a(Vof
p1998
g18
tp1999
a(Vliving
p2000
g62
tp2001
a(Vinhumation
p2002
g62
tp2003
a(Vhappened
p2004
g621
tp2005
a(Vin
p2006
g18
tp2007
a(VFrance,
p2008
g6
tp2009
ag15
aa(lp2010
(Vattended
p2011
g621
tp2012
a(Vwith
p2013
g18
tp2014
a(Vcircumstances
p2015
g75
tp2016
a(Vwhich
p2017
g80
tp2018
a(Vgo
p2019
g132
tp2020
a(Vfar
p2021
g100
tp2022
a(Vto
p2023
g147
tp2024
a(Vwarrant
p2025
g132
tp2026
a(Vthe
p2027
g3
tp2028
a(Vassertion
p2029
g62
tp2030
a(Vthat
p2031
g18
tp2032
ag15
aa(lp2033
(Vtruth
p2034
g62
tp2035
a(Vis
p2036
g87
tp2037
a(g26
g27
tp2038
a(Vindeed
p2039
g100
tp2040
a(g26
g27
tp2041
a(Vstranger
p2042
g62
tp2043
a(Vthan
p2044
g18
tp2045
a(Vfiction
p2046
g62
tp2047
a(g10
g11
tp2048
a(VThe
p2049
g3
tp2050
a(Vheroine
p2051
g62
tp2052
a(Vof
p2053
g18
tp2054
a(Vthe
p2055
g3
tp2056
a(Vstory
p2057
g62
tp2058
a(Vwas
p2059
g621
tp2060
a(g623
g3
tp2061
ag15
aa(lp2062
(VMademoiselle
p2063
g6
tp2064
a(VVictorine
p2065
g6
tp2066
a(VLafourcade
p2067
g6
tp2068
a(g26
g27
tp2069
a(g623
g3
tp2070
a(Vyoung
p2071
g52
tp2072
a(Vgirl
p2073
g62
tp2074
a(Vof
p2075
g18
tp2076
a(Villustrious
p2077
g52
tp2078
a(Vfamily,
p2079
g62
tp2080
ag15
aa(lp2081
(Vof
p2082
g18
tp2083
a(Vwealth
p2084
g62
tp2085
a(g26
g27
tp2086
a(Vand
p2087
g59
tp2088
a(Vof
p2089
g18
tp2090
a(Vgreat
p2091
g52
tp2092
a(Vpersonal
p2093
g52
tp2094
a(Vbeauty
p2095
g62
tp2096
a(g10
g11
tp2097
a(VAmong
p2098
g18
tp2099
a(Vher
p2100
g1167
tp2101
a(Vnumerous
p2102
g52
tp2103
a(Vsuitors
p2104
g75
tp2105
a(Vwas
p2106
g621
tp2107
ag15
aa(lp2108
(VJulian
p2109
g52
tp2110
a(VBossuet
p2111
g6
tp2112
a(g26
g27
tp2113
a(g623
g3
tp2114
a(Vpoor
p2115
g52
tp2116
a(V/litterateur/
p2117
g62
tp2118
a(g26
g27
tp2119
a(Vor
p2120
g59
tp2121
a(Vjournalist
p2122
g62
tp2123
a(g26
g27
tp2124
a(Vof
p2125
g18
tp2126
a(VParis
p2127
g6
tp2128
a(g10
g11
tp2129
a(VHis
p2130
g1167
tp2131
ag15
aa(lp2132
(Vtalents
p2133
g75
tp2134
a(g26
g27
tp2135
a(Vand
p2136
g59
tp2137
a(Vgeneral
p2138
g52
tp2139
a(Vamiability
p2140
g62
tp2141
a(g26
g27
tp2142
a(Vhad
p2143
g621
tp2144
a(Vrecommended
p2145
g169
tp2146
a(Vhim
p2147
g138
tp2148
a(Vto
p2149
g147
tp2150
a(Vthe
p2151
g3
tp2152
a(Vnotice
p2153
g62
tp2154
a(Vof
p2155
g18
tp2156
ag15
aa(lp2157
(Vthe
p2158
g3
tp2159
a(Vheiress
p2160
g62
tp2161
a(g26
g27
tp2162
a(Vby
p2163
g18
tp2164
a(Vwhom
p2165
g720
tp2166
a(Vhe
p2167
g138
tp2168
a(Vseems
p2169
g87
tp2170
a(Vto
p2171
g147
tp2172
a(Vhave
p2173
g132
tp2174
a(Vbeen
p2175
g169
tp2176
a(Vtruly
p2177
g100
tp2178
a(Vbeloved
p2179
g169
tp2180
a(g411
g412
tp2181
a(Vbut
p2182
g59
tp2183
a(Vher
p2184
g1167
tp2185
a(Vpride
p2186
g62
tp2187
ag15
aa(lp2188
(Vof
p2189
g18
tp2190
a(Vbirth
p2191
g52
tp2192
a(Vdecided
p2193
g169
tp2194
a(Vher
p2195
g138
tp2196
a(g26
g27
tp2197
a(Vfinally
p2198
g100
tp2199
a(g26
g27
tp2200
a(Vto
p2201
g147
tp2202
a(Vreject
p2203
g132
tp2204
a(Vhim
p2205
g138
tp2206
a(g26
g27
tp2207
a(Vand
p2208
g59
tp2209
a(Vto
p2210
g147
tp2211
a(Vwed
p2212
g621
tp2213
a(g623
g3
tp2214
a(VMonsieur
p2215
g6
tp2216
ag15
aa(lp2217
(VRenelle
p2218
g6
tp2219
a(g26
g27
tp2220
a(g623
g3
tp2221
a(Vbanker
p2222
g62
tp2223
a(g26
g27
tp2224
a(Vand
p2225
g59
tp2226
a(g623
g3
tp2227
a(Vdiplomatist
p2228
g62
tp2229
a(Vof
p2230
g18
tp2231
a(Vsome
p2232
g3
tp2233
a(Veminence
p2234
g62
tp2235
a(g10
g11
tp2236
a(VAfter
p2237
g18
tp2238
a(Vmarriage,
p2239
g52
tp2240
ag15
aa(lp2241
(Vhowever
p2242
g100
tp2243
a(g26
g27
tp2244
a(Vthis
p2245
g3
tp2246
a(Vgentleman
p2247
g62
tp2248
a(Vneglected
p2249
g621
tp2250
a(g26
g27
tp2251
a(Vand
p2252
g59
tp2253
a(g26
g27
tp2254
a(Vperhaps
p2255
g100
tp2256
a(g26
g27
tp2257
a(Veven
p2258
g100
tp2259
a(Vmore
p2260
g396
tp2261
a(Vpositively
p2262
g100
tp2263
ag15
aa(lp2264
(Vill-treated
p2265
g52
tp2266
a(Vher
p2267
g1167
tp2268
a(g10
g11
tp2269
a(VHaving
p2270
g1190
tp2271
a(Vpassed
p2272
g169
tp2273
a(Vwith
p2274
g18
tp2275
a(Vhim
p2276
g138
tp2277
a(Vsome
p2278
g3
tp2279
a(Vwretched
p2280
g52
tp2281
a(Vyears
p2282
g75
tp2283
a(g26
g27
tp2284
a(Vshe
p2285
g138
tp2286
a(Vdied,
p2287
g1446
tp2288
ag15
aa(lp2289
(Vat
p2290
g18
tp2291
a(Vleast
p2292
g746
tp2293
a(Vher
p2294
g1167
tp2295
a(Vcondition
p2296
g62
tp2297
a(Vso
p2298
g18
tp2299
a(Vclosely
p2300
g100
tp2301
a(Vresembled
p2302
g169
tp2303
a(Vdeath
p2304
g62
tp2305
a(Vas
p2306
g18
tp2307
a(Vto
p2308
g147
tp2309
a(Vdeceive
p2310
g132
tp2311
a(Vevery
p2312
g3
tp2313
ag15
aa(lp2314
(Vone
p2315
g766
tp2316
a(Vwho
p2317
g720
tp2318
a(Vsaw
p2319
g62
tp2320
a(Vher
p2321
g1167
tp2322
a(g10
g11
tp2323
a(VShe
p2324
g138
tp2325
a(Vwas
p2326
g621
tp2327
a(Vburied
p2328
g169
tp2329
a(Vnot
p2330
g100
tp2331
a(Vin
p2332
g18
tp2333
a(g623
g3
tp2334
a(Vvault
p2335
g62
tp2336
a(Vbut
p2337
g59
tp2338
a(Vin
p2339
g18
tp2340
a(Van
p2341
g3
tp2342
a(Vordinary
p2343
g52
tp2344
ag15
aa(lp2345
(Vgrave
p2346
g62
tp2347
a(Vin
p2348
g18
tp2349
a(Vthe
p2350
g3
tp2351
a(Vvillage
p2352
g62
tp2353
a(Vof
p2354
g18
tp2355
a(Vher
p2356
g1167
tp2357
a(Vnativity
p2358
g62
tp2359
a(g10
g11
tp2360
a(VFilled
p2361
g6
tp2362
a(Vwith
p2363
g18
tp2364
a(Vdespair
p2365
g52
tp2366
a(g26
g27
tp2367
a(Vand
p2368
g59
tp2369
a(Vstill
p2370
g100
tp2371
ag15
aa(lp2372
(Vinflamed
p2373
g621
tp2374
a(Vby
p2375
g18
tp2376
a(Vthe
p2377
g3
tp2378
a(Vmemory
p2379
g62
tp2380
a(Vof
p2381
g18
tp2382
a(g623
g3
tp2383
a(Vprofound
p2384
g62
tp2385
a(Vattachment
p2386
g62
tp2387
a(g26
g27
tp2388
a(Vthe
p2389
g3
tp2390
a(Vlover
p2391
g62
tp2392
a(Vjourneys
p2393
g75
tp2394
a(Vfrom
p2395
g18
tp2396
ag15
aa(lp2397
(Vthe
p2398
g3
tp2399
a(Vcapital
p2400
g62
tp2401
a(Vto
p2402
g147
tp2403
a(Vthe
p2404
g3
tp2405
a(Vremote
p2406
g62
tp2407
a(Vprovince
p2408
g62
tp2409
a(Vin
p2410
g18
tp2411
a(Vwhich
p2412
g80
tp2413
a(Vthe
p2414
g3
tp2415
a(Vvillage
p2416
g62
tp2417
a(Vlies
p2418
g75
tp2419
a(g26
g27
tp2420
a(Vwith
p2421
g18
tp2422
a(Vthe
p2423
g3
tp2424
ag15
aa(lp2425
(Vromantic
p2426
g52
tp2427
a(Vpurpose
p2428
g62
tp2429
a(Vof
p2430
g18
tp2431
a(Vdisinterring
p2432
g1190
tp2433
a(Vthe
p2434
g3
tp2435
a(Vcorpse
p2436
g62
tp2437
a(g26
g27
tp2438
a(Vand
p2439
g59
tp2440
a(Vpossessing
p2441
g1190
tp2442
a(Vhimself
p2443
g138
tp2444
a(Vof
p2445
g18
tp2446
ag15
aa(lp2447
(Vits
p2448
g1167
tp2449
a(Vluxuriant
p2450
g52
tp2451
a(Vtresses
p2452
g75
tp2453
a(g10
g11
tp2454
a(VHe
p2455
g138
tp2456
a(Vreaches
p2457
g87
tp2458
a(Vthe
p2459
g3
tp2460
a(Vgrave
p2461
g62
tp2462
a(g10
g11
tp2463
a(VAt
p2464
g18
tp2465
a(Vmidnight
p2466
g62
tp2467
a(Vhe
p2468
g138
tp2469
a(Vunearths
p2470
g87
tp2471
a(Vthe
p2472
g3
tp2473
ag15
aa(lp2474
(Vcoffin
p2475
g62
tp2476
a(g26
g27
tp2477
a(Vopens
p2478
g87
tp2479
a(Vit
p2480
g138
tp2481
a(g26
g27
tp2482
a(Vand
p2483
g59
tp2484
a(Vis
p2485
g87
tp2486
a(Vin
p2487
g18
tp2488
a(Vthe
p2489
g3
tp2490
a(Vact
p2491
g62
tp2492
a(Vof
p2493
g18
tp2494
a(Vdetaching
p2495
g1190
tp2496
a(Vthe
p2497
g3
tp2498
a(Vhair
p2499
g62
tp2500
a(g26
g27
tp2501
a(Vwhen
p2502
g175
tp2503
a(Vhe
p2504
g138
tp2505
a(Vis
p2506
g87
tp2507
ag15
aa(lp2508
(Varrested
p2509
g621
tp2510
a(Vby
p2511
g18
tp2512
a(Vthe
p2513
g3
tp2514
a(Vunclosing
p2515
g1190
tp2516
a(Vof
p2517
g18
tp2518
a(Vthe
p2519
g3
tp2520
a(Vbeloved
p2521
g169
tp2522
a(Veyes
p2523
g75
tp2524
a(g10
g11
tp2525
a(VIn
p2526
g18
tp2527
a(Vfact
p2528
g62
tp2529
a(g26
g27
tp2530
a(Vthe
p2531
g3
tp2532
a(Vlady
p2533
g62
tp2534
a(Vhad
p2535
g621
tp2536
ag15
aa(lp2537
(Vbeen
p2538
g169
tp2539
a(Vburied
p2540
g169
tp2541
a(Valive
p2542
g52
tp2543
a(g10
g11
tp2544
a(VVitality
p2545
g62
tp2546
a(Vhad
p2547
g621
tp2548
a(Vnot
p2549
g100
tp2550
a(Valtogether
p2551
g100
tp2552
a(Vdeparted
p2553
g169
tp2554
a(g411
g412
tp2555
a(Vand
p2556
g59
tp2557
a(Vshe
p2558
g138
tp2559
a(Vwas
p2560
g621
tp2561
ag15
aa(lp2562
(Varoused
p2563
g621
tp2564
a(g26
g27
tp2565
a(Vby
p2566
g18
tp2567
a(Vthe
p2568
g3
tp2569
a(Vcaresses
p2570
g75
tp2571
a(Vof
p2572
g18
tp2573
a(Vher
p2574
g1167
tp2575
a(Vlover
p2576
g62
tp2577
a(g26
g27
tp2578
a(Vfrom
p2579
g18
tp2580
a(Vthe
p2581
g3
tp2582
a(Vlethargy
p2583
g62
tp2584
a(Vwhich
p2585
g80
tp2586
a(Vhad
p2587
g621
tp2588
a(Vbeen
p2589
g169
tp2590
ag15
aa(lp2591
(Vmistaken
p2592
g62
tp2593
a(Vfor
p2594
g18
tp2595
a(Vdeath
p2596
g62
tp2597
a(g10
g11
tp2598
a(VHe
p2599
g138
tp2600
a(Vbore
p2601
g621
tp2602
a(Vher
p2603
g138
tp2604
a(Vfrantically
p2605
g100
tp2606
a(Vto
p2607
g147
tp2608
a(Vhis
p2609
g1167
tp2610
a(Vlodgings
p2611
g75
tp2612
a(Vin
p2613
g18
tp2614
a(Vthe
p2615
g3
tp2616
ag15
aa(lp2617
(Vvillage
p2618
g62
tp2619
a(g10
g11
tp2620
a(VHe
p2621
g138
tp2622
a(Vemployed
p2623
g621
tp2624
a(Vcertain
p2625
g52
tp2626
a(Vpowerful
p2627
g52
tp2628
a(Vrestoratives
p2629
g75
tp2630
a(Vsuggested
p2631
g621
tp2632
a(Vby
p2633
g18
tp2634
a(Vno
p2635
g3
tp2636
ag15
aa(lp2637
(Vlittle
p2638
g100
tp2639
a(Vmedical
p2640
g52
tp2641
a(Vlearning
p2642
g62
tp2643
a(g10
g11
tp2644
a(VIn
p2645
g18
tp2646
a(Vfine
p2647
g62
tp2648
a(g26
g27
tp2649
a(Vshe
p2650
g138
tp2651
a(Vrevived
p2652
g621
tp2653
a(g10
g11
tp2654
a(VShe
p2655
g138
tp2656
a(Vrecognized
p2657
g621
tp2658
a(Vher
p2659
g1167
tp2660
ag15
aa(lp2661
(Vpreserver
p2662
g62
tp2663
a(g10
g11
tp2664
a(VShe
p2665
g138
tp2666
a(Vremained
p2667
g621
tp2668
a(Vwith
p2669
g18
tp2670
a(Vhim
p2671
g138
tp2672
a(Vuntil
p2673
g18
tp2674
a(g26
g27
tp2675
a(Vby
p2676
g18
tp2677
a(Vslow
p2678
g52
tp2679
a(Vdegrees
p2680
g75
tp2681
a(g26
g27
tp2682
a(Vshe
p2683
g138
tp2684
a(Vfully
p2685
g100
tp2686
ag15
aa(lp2687
(Vrecovered
p2688
g621
tp2689
a(Vher
p2690
g1167
tp2691
a(Voriginal
p2692
g52
tp2693
a(Vhealth
p2694
g62
tp2695
a(g10
g11
tp2696
a(VHer
p2697
g1167
tp2698
a(Vwoman
p2699
g62
tp2700
a(V's
p2701
S'POS'
p2702
tp2703
a(Vheart
p2704
g62
tp2705
a(Vwas
p2706
g621
tp2707
a(Vnot
p2708
g100
tp2709
a(Vadamant
p2710
g52
tp2711
a(g26
g27
tp2712
a(Vand
p2713
g59
tp2714
ag15
aa(lp2715
(Vthis
p2716
g3
tp2717
a(Vlast
p2718
g52
tp2719
a(Vlesson
p2720
g62
tp2721
a(Vof
p2722
g18
tp2723
a(Vlove
p2724
g62
tp2725
a(Vsufficed
p2726
g169
tp2727
a(Vto
p2728
g147
tp2729
a(Vsoften
p2730
g132
tp2731
a(Vit
p2732
g138
tp2733
a(g10
g11
tp2734
a(VShe
p2735
g138
tp2736
a(Vbestowed
p2737
g621
tp2738
a(Vit
p2739
g138
tp2740
a(Vupon
p2741
g18
tp2742
ag15
aa(lp2743
(VBossuet
p2744
g6
tp2745
a(g10
g11
tp2746
a(VShe
p2747
g138
tp2748
a(Vreturned
p2749
g621
tp2750
a(Vno
p2751
g3
tp2752
a(Vmore
p2753
g396
tp2754
a(Vto
p2755
g147
tp2756
a(Vher
p2757
g1167
tp2758
a(Vhusband
p2759
g62
tp2760
a(g26
g27
tp2761
a(Vbut
p2762
g59
tp2763
a(Vconcealing
p2764
g1190
tp2765
a(Vfrom
p2766
g18
tp2767
a(Vhim
p2768
g138
tp2769
ag15
aa(lp2770
(Vher
p2771
g1167
tp2772
a(Vresurrection
p2773
g62
tp2774
a(g26
g27
tp2775
a(Vfled
p2776
g621
tp2777
a(g26
g27
tp2778
a(Vwith
p2779
g18
tp2780
a(Vher
p2781
g1167
tp2782
a(Vlover
p2783
g62
tp2784
a(g26
g27
tp2785
a(Vto
p2786
g147
tp2787
a(VAmerica
p2788
g6
tp2789
a(g10
g11
tp2790
a(VTwenty
p2791
g62
tp2792
a(Vyears
p2793
g75
tp2794
ag15
aa(lp2795
(Vafterwards
p2796
g75
tp2797
a(g26
g27
tp2798
a(Vthe
p2799
g3
tp2800
a(Vtwo
p2801
g766
tp2802
a(Vreturned
p2803
g621
tp2804
a(Vto
p2805
g147
tp2806
a(VFrance
p2807
g6
tp2808
a(g26
g27
tp2809
a(Vin
p2810
g18
tp2811
a(Vthe
p2812
g3
tp2813
a(Vpersuasion
p2814
g62
tp2815
a(Vthat
p2816
g18
tp2817
a(Vtime
p2818
g62
tp2819
a(Vhad
p2820
g621
tp2821
ag15
aa(lp2822
(Vso
p2823
g18
tp2824
a(Vgreatly
p2825
g100
tp2826
a(Valtered
p2827
g169
tp2828
a(Vthe
p2829
g3
tp2830
a(Vlady
p2831
g62
tp2832
a(V's
p2833
g2702
tp2834
a(Vappearance
p2835
g62
tp2836
a(g26
g27
tp2837
a(Vthat
p2838
g18
tp2839
a(Vher
p2840
g1167
tp2841
a(Vfriends
p2842
g75
tp2843
a(Vwould
p2844
g129
tp2845
a(Vbe
p2846
g132
tp2847
ag15
aa(lp2848
(Vunable
p2849
g52
tp2850
a(Vto
p2851
g147
tp2852
a(Vrecognize
p2853
g132
tp2854
a(Vher
p2855
g1167
tp2856
a(g10
g11
tp2857
a(VThey
p2858
g138
tp2859
a(Vwere
p2860
g621
tp2861
a(Vmistaken
p2862
g169
tp2863
a(g26
g27
tp2864
a(Vhowever
p2865
g100
tp2866
a(g411
g412
tp2867
a(Vfor
p2868
g18
tp2869
a(g26
g27
tp2870
a(Vat
p2871
g18
tp2872
a(Vthe
p2873
g3
tp2874
a(Vfirst
p2875
g52
tp2876
ag15
aa(lp2877
(Vmeeting
p2878
g62
tp2879
a(g26
g27
tp2880
a(VMonsieur
p2881
g6
tp2882
a(VRenelle
p2883
g6
tp2884
a(Vdid
p2885
g621
tp2886
a(Vactually
p2887
g100
tp2888
a(Vrecognize
p2889
g132
tp2890
a(Vand
p2891
g59
tp2892
a(Vmake
p2893
g132
tp2894
a(Vclaim
p2895
g62
tp2896
a(Vto
p2897
g147
tp2898
a(Vhis
p2899
g1167
tp2900
ag15
aa(lp2901
(Vwife
p2902
g62
tp2903
a(g10
g11
tp2904
a(VThis
p2905
g3
tp2906
a(Vclaim
p2907
g62
tp2908
a(Vshe
p2909
g138
tp2910
a(Vresisted
p2911
g621
tp2912
a(g411
g412
tp2913
a(Vand
p2914
g59
tp2915
a(g623
g3
tp2916
a(Vjudicial
p2917
g52
tp2918
a(Vtribunal
p2919
g52
tp2920
a(Vsustained
p2921
g169
tp2922
a(Vher
p2923
g138
tp2924
a(Vin
p2925
g18
tp2926
ag15
aa(lp2927
(Vher
p2928
g1167
tp2929
a(Vresistance
p2930
g62
tp2931
a(g411
g412
tp2932
a(Vdeciding
p2933
g1190
tp2934
a(Vthat
p2935
g18
tp2936
a(Vthe
p2937
g3
tp2938
a(Vpeculiar
p2939
g62
tp2940
a(Vcircumstances
p2941
g75
tp2942
a(g26
g27
tp2943
a(Vwith
p2944
g18
tp2945
a(Vthe
p2946
g3
tp2947
a(Vlong
p2948
g52
tp2949
ag15
aa(lp2950
(Vlapse
p2951
g62
tp2952
a(Vof
p2953
g18
tp2954
a(Vyears
p2955
g75
tp2956
a(g26
g27
tp2957
a(Vhad
p2958
g621
tp2959
a(Vextinguished
p2960
g169
tp2961
a(g26
g27
tp2962
a(Vnot
p2963
g100
tp2964
a(Vonly
p2965
g100
tp2966
a(Vequitably
p2967
g100
tp2968
a(Vbut
p2969
g59
tp2970
a(Vlegally
p2971
g100
tp2972
a(g26
g27
tp2973
a(Vthe
p2974
g3
tp2975
ag15
aa(lp2976
(Vauthority
p2977
g62
tp2978
a(Vof
p2979
g18
tp2980
a(Vthe
p2981
g3
tp2982
a(Vhusband
p2983
g62
tp2984
a(g10
g11
tp2985
ag15
aa(lp2986
(VThe
p2987
g3
tp2988
a(V``
p2989
g46
tp2990
a(VChirurgical
p2991
g52
tp2992
a(VJournal
p2993
g6
tp2994
a(V''
p2995
g56
tp2996
a(Vof
p2997
g18
tp2998
a(VLeipsic
p2999
g6
tp3000
a(g623
g3
tp3001
a(Vperiodical
p3002
g52
tp3003
a(g26
g27
tp3004
a(Vof
p3005
g18
tp3006
a(Vhigh
p3007
g52
tp3008
a(Vauthority
p3009
g62
tp3010
ag15
aa(lp3011
(Vand
p3012
g59
tp3013
a(Vmerit
p3014
g621
tp3015
a(g26
g27
tp3016
a(Vwhich
p3017
g80
tp3018
a(Vsome
p3019
g3
tp3020
a(VAmerican
p3021
g6
tp3022
a(Vbookseller
p3023
g62
tp3024
a(Vwould
p3025
g129
tp3026
a(Vdo
p3027
g132
tp3028
a(Vwell
p3029
g100
tp3030
a(Vto
p3031
g147
tp3032
a(Vtranslate
p3033
g132
tp3034
a(Vand
p3035
g59
tp3036
ag15
aa(lp3037
(Vrepublish
p3038
g52
tp3039
a(Vrecords
p3040
g75
tp3041
a(g26
g27
tp3042
a(Vin
p3043
g18
tp3044
a(g623
g3
tp3045
a(Vlate
p3046
g52
tp3047
a(Vnumber
p3048
g62
tp3049
a(g26
g27
tp3050
a(g623
g3
tp3051
a(Vvery
p3052
g100
tp3053
a(Vdistressing
p3054
g1190
tp3055
a(Vevent
p3056
g62
tp3057
a(Vof
p3058
g18
tp3059
a(Vthe
p3060
g3
tp3061
ag15
aa(lp3062
(Vcharacter
p3063
g62
tp3064
a(Vin
p3065
g18
tp3066
a(Vquestion
p3067
g62
tp3068
a(g10
g11
tp3069
ag15
aa(lp3070
(VAn
p3071
g3
tp3072
a(Vofficer
p3073
g62
tp3074
a(Vof
p3075
g18
tp3076
a(Vartillery
p3077
g62
tp3078
a(g26
g27
tp3079
a(g623
g3
tp3080
a(Vman
p3081
g62
tp3082
a(Vof
p3083
g18
tp3084
a(Vgigantic
p3085
g52
tp3086
a(Vstature
p3087
g62
tp3088
a(Vand
p3089
g59
tp3090
a(Vof
p3091
g18
tp3092
a(Vrobust
p3093
g52
tp3094
a(Vhealth,
p3095
g62
tp3096
ag15
aa(lp3097
(Vbeing
p3098
g1190
tp3099
a(Vthrown
p3100
g169
tp3101
a(Vfrom
p3102
g18
tp3103
a(Van
p3104
g3
tp3105
a(Vunmanageable
p3106
g52
tp3107
a(Vhorse
p3108
g62
tp3109
a(g26
g27
tp3110
a(Vreceived
p3111
g621
tp3112
a(g623
g3
tp3113
a(Vvery
p3114
g100
tp3115
a(Vsevere
p3116
g52
tp3117
ag15
aa(lp3118
(Vcontusion
p3119
g62
tp3120
a(Vupon
p3121
g18
tp3122
a(Vthe
p3123
g3
tp3124
a(Vhead
p3125
g62
tp3126
a(g26
g27
tp3127
a(Vwhich
p3128
g80
tp3129
a(Vrendered
p3130
g169
tp3131
a(Vhim
p3132
g138
tp3133
a(Vinsensible
p3134
g52
tp3135
a(Vat
p3136
g18
tp3137
a(Vonce
p3138
g100
tp3139
a(g411
g412
tp3140
a(Vthe
p3141
g3
tp3142
ag15
aa(lp3143
(Vskull
p3144
g62
tp3145
a(Vwas
p3146
g621
tp3147
a(Vslightly
p3148
g100
tp3149
a(Vfractured
p3150
g169
tp3151
a(g411
g412
tp3152
a(Vbut
p3153
g59
tp3154
a(Vno
p3155
g100
tp3156
a(Vimmediate
p3157
g52
tp3158
a(Vdanger
p3159
g62
tp3160
a(Vwas
p3161
g621
tp3162
a(Vapprehended
p3163
g169
tp3164
a(g10
g11
tp3165
ag15
aa(lp3166
(VTrepanning
p3167
g1190
tp3168
a(Vwas
p3169
g621
tp3170
a(Vaccomplished
p3171
g169
tp3172
a(Vsuccessfully
p3173
g100
tp3174
a(g10
g11
tp3175
a(VHe
p3176
g138
tp3177
a(Vwas
p3178
g621
tp3179
a(Vbled
p3180
g169
tp3181
a(g26
g27
tp3182
a(Vand
p3183
g59
tp3184
a(Vmany
p3185
g52
tp3186
a(Vother
p3187
g52
tp3188
a(Vof
p3189
g18
tp3190
ag15
aa(lp3191
(Vthe
p3192
g3
tp3193
a(Vordinary
p3194
g52
tp3195
a(Vmeans
p3196
g75
tp3197
a(Vof
p3198
g18
tp3199
a(Vrelief
p3200
g62
tp3201
a(Vwere
p3202
g621
tp3203
a(Vadopted
p3204
g169
tp3205
a(g10
g11
tp3206
a(VGradually
p3207
g100
tp3208
a(g26
g27
tp3209
a(Vhowever
p3210
g100
tp3211
a(g26
g27
tp3212
a(Vhe
p3213
g138
tp3214
a(Vfell
p3215
g621
tp3216
ag15
aa(lp3217
(Vinto
p3218
g18
tp3219
a(g623
g3
tp3220
a(Vmore
p3221
g396
tp3222
a(Vand
p3223
g59
tp3224
a(Vmore
p3225
g396
tp3226
a(Vhopeless
p3227
g52
tp3228
a(Vstate
p3229
g62
tp3230
a(Vof
p3231
g18
tp3232
a(Vstupor
p3233
g62
tp3234
a(g411
g412
tp3235
a(Vand
p3236
g59
tp3237
a(g26
g27
tp3238
a(Vfinally
p3239
g100
tp3240
a(g26
g27
tp3241
a(Vit
p3242
g138
tp3243
a(Vwas
p3244
g621
tp3245
ag15
aa(lp3246
(Vthought
p3247
g621
tp3248
a(Vthat
p3249
g18
tp3250
a(Vhe
p3251
g138
tp3252
a(Vdied
p3253
g621
tp3254
a(g10
g11
tp3255
ag15
aa(lp3256
(VThe
p3257
g3
tp3258
a(Vweather
p3259
g62
tp3260
a(Vwas
p3261
g621
tp3262
a(Vwarm
p3263
g62
tp3264
a(g411
g412
tp3265
a(Vand
p3266
g59
tp3267
a(Vhe
p3268
g138
tp3269
a(Vwas
p3270
g621
tp3271
a(Vburied
p3272
g169
tp3273
a(g26
g27
tp3274
a(Vwith
p3275
g18
tp3276
a(Vindecent
p3277
g62
tp3278
a(Vhaste
p3279
g62
tp3280
a(g26
g27
tp3281
a(Vin
p3282
g18
tp3283
a(Vone
p3284
g766
tp3285
a(Vof
p3286
g18
tp3287
ag15
aa(lp3288
(Vthe
p3289
g3
tp3290
a(Vpublic
p3291
g62
tp3292
a(Vcemeteries
p3293
g75
tp3294
a(g10
g11
tp3295
a(VHis
p3296
g1167
tp3297
a(Vfuneral
p3298
g52
tp3299
a(Vtook
p3300
g62
tp3301
a(Vplace
p3302
g62
tp3303
a(Von
p3304
g18
tp3305
a(VThursday
p3306
g6
tp3307
a(g10
g11
tp3308
a(VOn
p3309
g18
tp3310
a(Vthe
p3311
g3
tp3312
a(VSunday
p3313
g6
tp3314
ag15
aa(lp3315
(Vfollowing
p3316
g1190
tp3317
a(g26
g27
tp3318
a(Vthe
p3319
g3
tp3320
a(Vgrounds
p3321
g75
tp3322
a(Vof
p3323
g18
tp3324
a(Vthe
p3325
g3
tp3326
a(Vcemetery
p3327
g62
tp3328
a(Vwere
p3329
g621
tp3330
a(g26
g27
tp3331
a(Vas
p3332
g18
tp3333
a(Vusual
p3334
g52
tp3335
a(g26
g27
tp3336
a(Vmuch
p3337
g100
tp3338
a(Vthronged
p3339
g621
tp3340
ag15
aa(lp3341
(Vwith
p3342
g18
tp3343
a(Vvisiters
p3344
g75
tp3345
a(g411
g412
tp3346
a(Vand
p3347
g59
tp3348
a(g26
g27
tp3349
a(Vabout
p3350
g18
tp3351
a(Vnoon
p3352
g100
tp3353
a(g26
g27
tp3354
a(Van
p3355
g3
tp3356
a(Vintense
p3357
g62
tp3358
a(Vexcitement
p3359
g62
tp3360
a(Vwas
p3361
g621
tp3362
a(Vcreated
p3363
g169
tp3364
a(Vby
p3365
g18
tp3366
a(Vthe
p3367
g3
tp3368
ag15
aa(lp3369
(Vdeclaration
p3370
g62
tp3371
a(Vof
p3372
g18
tp3373
a(g623
g3
tp3374
a(Vpeasant
p3375
g52
tp3376
a(Vthat
p3377
g18
tp3378
a(g26
g27
tp3379
a(Vwhile
p3380
g18
tp3381
a(Vsitting
p3382
g1190
tp3383
a(Vupon
p3384
g18
tp3385
a(Vthe
p3386
g3
tp3387
a(Vgrave
p3388
g62
tp3389
a(Vof
p3390
g18
tp3391
a(Vthe
p3392
g3
tp3393
ag15
aa(lp3394
(Vofficer
p3395
g62
tp3396
a(g26
g27
tp3397
a(Vhe
p3398
g138
tp3399
a(Vhad
p3400
g621
tp3401
a(Vdistinctly
p3402
g100
tp3403
a(Vfelt
p3404
g169
tp3405
a(g623
g3
tp3406
a(Vcommotion
p3407
g62
tp3408
a(Vof
p3409
g18
tp3410
a(Vthe
p3411
g3
tp3412
a(Vearth
p3413
g52
tp3414
a(g26
g27
tp3415
a(Vas
p3416
g18
tp3417
a(Vif
p3418
g18
tp3419
ag15
aa(lp3420
(Voccasioned
p3421
g621
tp3422
a(Vby
p3423
g18
tp3424
a(Vsome
p3425
g3
tp3426
a(Vone
p3427
g766
tp3428
a(Vstruggling
p3429
g1190
tp3430
a(Vbeneath
p3431
g62
tp3432
a(g10
g11
tp3433
a(VAt
p3434
g18
tp3435
a(Vfirst
p3436
g52
tp3437
a(Vlittle
p3438
g52
tp3439
a(Vattention
p3440
g62
tp3441
a(Vwas
p3442
g621
tp3443
ag15
aa(lp3444
(Vpaid
p3445
g621
tp3446
a(Vto
p3447
g147
tp3448
a(Vthe
p3449
g3
tp3450
a(Vman
p3451
g62
tp3452
a(V's
p3453
g2702
tp3454
a(Vasseveration
p3455
g62
tp3456
a(g411
g412
tp3457
a(Vbut
p3458
g59
tp3459
a(Vhis
p3460
g1167
tp3461
a(Vevident
p3462
g62
tp3463
a(Vterror
p3464
g62
tp3465
a(g26
g27
tp3466
a(Vand
p3467
g59
tp3468
a(Vthe
p3469
g3
tp3470
a(Vdogged
p3471
g52
tp3472
ag15
aa(lp3473
(Vobstinacy
p3474
g62
tp3475
a(Vwith
p3476
g18
tp3477
a(Vwhich
p3478
g80
tp3479
a(Vhe
p3480
g138
tp3481
a(Vpersisted
p3482
g621
tp3483
a(Vin
p3484
g18
tp3485
a(Vhis
p3486
g1167
tp3487
a(Vstory
p3488
g62
tp3489
a(g26
g27
tp3490
a(Vhad
p3491
g621
tp3492
a(g26
g27
tp3493
a(Vat
p3494
g18
tp3495
a(Vlength
p3496
g62
tp3497
a(g26
g27
tp3498
a(Vtheir
p3499
g1167
tp3500
ag15
aa(lp3501
(Vnatural
p3502
g52
tp3503
a(Veffect
p3504
g62
tp3505
a(Vupon
p3506
g18
tp3507
a(Vthe
p3508
g3
tp3509
a(Vcrowd
p3510
g62
tp3511
a(g10
g11
tp3512
a(VSpades
p3513
g6
tp3514
a(Vwere
p3515
g621
tp3516
a(Vhurriedly
p3517
g100
tp3518
a(Vprocured
p3519
g169
tp3520
a(g26
g27
tp3521
a(Vand
p3522
g59
tp3523
a(Vthe
p3524
g3
tp3525
ag15
aa(lp3526
(Vgrave
p3527
g62
tp3528
a(g26
g27
tp3529
a(Vwhich
p3530
g80
tp3531
a(Vwas
p3532
g621
tp3533
a(Vshamefully
p3534
g100
tp3535
a(Vshallow
p3536
g52
tp3537
a(g26
g27
tp3538
a(Vwas
p3539
g621
tp3540
a(g26
g27
tp3541
a(Vin
p3542
g18
tp3543
a(g623
g3
tp3544
a(Vfew
p3545
g52
tp3546
a(Vminutes
p3547
g75
tp3548
a(g26
g27
tp3549
a(Vso
p3550
g100
tp3551
a(Vfar
p3552
g100
tp3553
ag15
aa(lp3554
(Vthrown
p3555
g62
tp3556
a(Vopen
p3557
g169
tp3558
a(Vthat
p3559
g18
tp3560
a(Vthe
p3561
g3
tp3562
a(Vhead
p3563
g62
tp3564
a(Vof
p3565
g18
tp3566
a(Vits
p3567
g1167
tp3568
a(Voccupant
p3569
g52
tp3570
a(Vappeared
p3571
g169
tp3572
a(g10
g11
tp3573
a(VHe
p3574
g138
tp3575
a(Vwas
p3576
g621
tp3577
a(Vthen,
p3578
g1446
tp3579
ag15
aa(lp3580
(Vseemingly
p3581
g100
tp3582
a(g26
g27
tp3583
a(Vdead
p3584
g52
tp3585
a(g411
g412
tp3586
a(Vbut
p3587
g59
tp3588
a(Vhe
p3589
g138
tp3590
a(Vsat
p3591
g621
tp3592
a(Vnearly
p3593
g100
tp3594
a(Verect
p3595
g132
tp3596
a(Vwithin
p3597
g18
tp3598
a(Vhis
p3599
g1167
tp3600
a(Vcoffin
p3601
g62
tp3602
a(g26
g27
tp3603
a(Vthe
p3604
g3
tp3605
a(Vlid
p3606
g52
tp3607
a(Vof
p3608
g18
tp3609
ag15
aa(lp3610
(Vwhich
p3611
g80
tp3612
a(g26
g27
tp3613
a(Vin
p3614
g18
tp3615
a(Vhis
p3616
g1167
tp3617
a(Vfurious
p3618
g52
tp3619
a(Vstruggles
p3620
g75
tp3621
a(g26
g27
tp3622
a(Vhe
p3623
g138
tp3624
a(Vhad
p3625
g621
tp3626
a(Vpartially
p3627
g100
tp3628
a(Vuplifted
p3629
g169
tp3630
a(g10
g11
tp3631
ag15
aa(lp3632
(VHe
p3633
g138
tp3634
a(Vwas
p3635
g621
tp3636
a(Vforthwith
p3637
g18
tp3638
a(Vconveyed
p3639
g169
tp3640
a(Vto
p3641
g147
tp3642
a(Vthe
p3643
g3
tp3644
a(Vnearest
p3645
g746
tp3646
a(VHospital
p3647
g6
tp3648
a(g26
g27
tp3649
a(Vand
p3650
g59
tp3651
a(Vthere
p3652
g67
tp3653
a(Vpronounced
p3654
g169
tp3655
ag15
aa(lp3656
(Vto
p3657
g147
tp3658
a(Vbe
p3659
g132
tp3660
a(Vstill
p3661
g100
tp3662
a(Vliving
p3663
g1190
tp3664
a(g26
g27
tp3665
a(Valthough
p3666
g18
tp3667
a(Vin
p3668
g18
tp3669
a(Van
p3670
g3
tp3671
a(Vasphytic
p3672
g52
tp3673
a(Vcondition
p3674
g62
tp3675
a(g10
g11
tp3676
a(VAfter
p3677
g18
tp3678
a(Vsome
p3679
g3
tp3680
a(Vhours
p3681
g75
tp3682
ag15
aa(lp3683
(Vhe
p3684
g138
tp3685
a(Vrevived
p3686
g621
tp3687
a(g26
g27
tp3688
a(Vrecognized
p3689
g169
tp3690
a(Vindividuals
p3691
g75
tp3692
a(Vof
p3693
g18
tp3694
a(Vhis
p3695
g1167
tp3696
a(Vacquaintance
p3697
g62
tp3698
a(g411
g412
tp3699
a(Vand
p3700
g59
tp3701
a(g26
g27
tp3702
a(Vin
p3703
g18
tp3704
a(Vbroken
p3705
g169
tp3706
ag15
aa(lp3707
(Vsentences
p3708
g75
tp3709
a(g26
g27
tp3710
a(Vspoke
p3711
g62
tp3712
a(Vof
p3713
g18
tp3714
a(Vhis
p3715
g1167
tp3716
a(Vagonies
p3717
g75
tp3718
a(Vin
p3719
g18
tp3720
a(Vthe
p3721
g3
tp3722
a(Vgrave
p3723
g62
tp3724
a(g10
g11
tp3725
ag15
aa(lp3726
(VFrom
p3727
g18
tp3728
a(Vwhat
p3729
g720
tp3730
a(Vhe
p3731
g138
tp3732
a(Vrelated
p3733
g621
tp3734
a(g26
g27
tp3735
a(Vit
p3736
g138
tp3737
a(Vwas
p3738
g621
tp3739
a(Vclear
p3740
g52
tp3741
a(Vthat
p3742
g18
tp3743
a(Vhe
p3744
g138
tp3745
a(Vmust
p3746
g129
tp3747
a(Vhave
p3748
g132
tp3749
a(Vbeen
p3750
g169
tp3751
a(Vconscious
p3752
g52
tp3753
a(Vof
p3754
g18
tp3755
ag15
aa(lp3756
(Vlife
p3757
g62
tp3758
a(Vfor
p3759
g18
tp3760
a(Vmore
p3761
g434
tp3762
a(Vthan
p3763
g18
tp3764
a(Van
p3765
g3
tp3766
a(Vhour
p3767
g62
tp3768
a(g26
g27
tp3769
a(Vwhile
p3770
g18
tp3771
a(Vinhumed
p3772
g169
tp3773
a(g26
g27
tp3774
a(Vbefore
p3775
g18
tp3776
a(Vlapsing
p3777
g62
tp3778
a(Vinto
p3779
g18
tp3780
ag15
aa(lp3781
(Vinsensibility
p3782
g62
tp3783
a(g10
g11
tp3784
a(VThe
p3785
g3
tp3786
a(Vgrave
p3787
g62
tp3788
a(Vwas
p3789
g621
tp3790
a(Vcarelessly
p3791
g100
tp3792
a(Vand
p3793
g59
tp3794
a(Vloosely
p3795
g100
tp3796
a(Vfilled
p3797
g621
tp3798
a(Vwith
p3799
g18
tp3800
a(Van
p3801
g3
tp3802
ag15
aa(lp3803
(Vexceedingly
p3804
g100
tp3805
a(Vporous
p3806
g52
tp3807
a(Vsoil
p3808
g62
tp3809
a(g411
g412
tp3810
a(Vand
p3811
g59
tp3812
a(Vthus
p3813
g100
tp3814
a(Vsome
p3815
g3
tp3816
a(Vair
p3817
g62
tp3818
a(Vwas
p3819
g621
tp3820
a(Vnecessarily
p3821
g100
tp3822
a(Vadmitted
p3823
g169
tp3824
a(g10
g11
tp3825
a(VHe
p3826
g138
tp3827
ag15
aa(lp3828
(Vheard
p3829
g62
tp3830
a(Vthe
p3831
g3
tp3832
a(Vfootsteps
p3833
g75
tp3834
a(Vof
p3835
g18
tp3836
a(Vthe
p3837
g3
tp3838
a(Vcrowd
p3839
g62
tp3840
a(Voverhead
p3841
g62
tp3842
a(g26
g27
tp3843
a(Vand
p3844
g59
tp3845
a(Vendeavored
p3846
g621
tp3847
a(Vto
p3848
g147
tp3849
a(Vmake
p3850
g132
tp3851
ag15
aa(lp3852
(Vhimself
p3853
g138
tp3854
a(Vheard
p3855
g621
tp3856
a(Vin
p3857
g18
tp3858
a(Vturn
p3859
g62
tp3860
a(g10
g11
tp3861
a(VIt
p3862
g138
tp3863
a(Vwas
p3864
g621
tp3865
a(Vthe
p3866
g3
tp3867
a(Vtumult
p3868
g62
tp3869
a(Vwithin
p3870
g18
tp3871
a(Vthe
p3872
g3
tp3873
a(Vgrounds
p3874
g75
tp3875
a(Vof
p3876
g18
tp3877
a(Vthe
p3878
g3
tp3879
ag15
aa(lp3880
(Vcemetery
p3881
g62
tp3882
a(g26
g27
tp3883
a(Vhe
p3884
g138
tp3885
a(Vsaid
p3886
g621
tp3887
a(g26
g27
tp3888
a(Vwhich
p3889
g80
tp3890
a(Vappeared
p3891
g621
tp3892
a(Vto
p3893
g147
tp3894
a(Vawaken
p3895
g132
tp3896
a(Vhim
p3897
g138
tp3898
a(Vfrom
p3899
g18
tp3900
a(g623
g3
tp3901
a(Vdeep
p3902
g62
tp3903
a(Vsleep
p3904
g62
tp3905
a(Vbut
p3906
g59
tp3907
ag15
aa(lp3908
(Vno
p3909
g3
tp3910
a(Vsooner
p3911
g62
tp3912
a(Vwas
p3913
g621
tp3914
a(Vhe
p3915
g138
tp3916
a(Vawake
p3917
g70
tp3918
a(Vthan
p3919
g18
tp3920
a(Vhe
p3921
g138
tp3922
a(Vbecame
p3923
g621
tp3924
a(Vfully
p3925
g100
tp3926
a(Vaware
p3927
g52
tp3928
a(Vof
p3929
g18
tp3930
a(Vthe
p3931
g3
tp3932
a(Vawful
p3933
g52
tp3934
a(Vhorrors
p3935
g75
tp3936
ag15
aa(lp3937
(Vof
p3938
g18
tp3939
a(Vhis
p3940
g1167
tp3941
a(Vposition
p3942
g62
tp3943
a(g10
g11
tp3944
ag15
aa(lp3945
(VThis
p3946
g3
tp3947
a(Vpatient
p3948
g62
tp3949
a(g26
g27
tp3950
a(Vit
p3951
g138
tp3952
a(Vis
p3953
g87
tp3954
a(Vrecorded
p3955
g169
tp3956
a(g26
g27
tp3957
a(Vwas
p3958
g621
tp3959
a(Vdoing
p3960
g1190
tp3961
a(Vwell
p3962
g100
tp3963
a(g26
g27
tp3964
a(Vand
p3965
g59
tp3966
a(Vseemed
p3967
g621
tp3968
a(Vto
p3969
g147
tp3970
a(Vbe
p3971
g132
tp3972
a(Vin
p3973
g18
tp3974
a(g623
g3
tp3975
a(Vfair
p3976
g62
tp3977
ag15
aa(lp3978
(Vway
p3979
g62
tp3980
a(Vof
p3981
g18
tp3982
a(Vultimate
p3983
g52
tp3984
a(Vrecovery
p3985
g62
tp3986
a(g26
g27
tp3987
a(Vbut
p3988
g59
tp3989
a(Vfell
p3990
g621
tp3991
a(g623
g3
tp3992
a(Vvictim
p3993
g62
tp3994
a(Vto
p3995
g147
tp3996
a(Vthe
p3997
g3
tp3998
a(Vquackeries
p3999
g75
tp4000
a(Vof
p4001
g18
tp4002
a(Vmedical
p4003
g52
tp4004
ag15
aa(lp4005
(Vexperiment
p4006
g62
tp4007
a(g10
g11
tp4008
a(VThe
p4009
g3
tp4010
a(Vgalvanic
p4011
g52
tp4012
a(Vbattery
p4013
g62
tp4014
a(Vwas
p4015
g621
tp4016
a(Vapplied
p4017
g169
tp4018
a(g411
g412
tp4019
a(Vand
p4020
g59
tp4021
a(Vhe
p4022
g138
tp4023
a(Vsuddenly
p4024
g100
tp4025
a(Vexpired
p4026
g621
tp4027
a(Vin
p4028
g18
tp4029
ag15
aa(lp4030
(Vone
p4031
g766
tp4032
a(Vof
p4033
g18
tp4034
a(Vthose
p4035
g3
tp4036
a(Vecstatic
p4037
g52
tp4038
a(Vparoxysms
p4039
g75
tp4040
a(Vwhich
p4041
g80
tp4042
a(g26
g27
tp4043
a(Voccasionally
p4044
g100
tp4045
a(g26
g27
tp4046
a(Vit
p4047
g138
tp4048
a(Vsuperinduces
p4049
g87
tp4050
a(g10
g11
tp4051
ag15
aa(lp4052
(VThe
p4053
g3
tp4054
a(Vmention
p4055
g62
tp4056
a(Vof
p4057
g18
tp4058
a(Vthe
p4059
g3
tp4060
a(Vgalvanic
p4061
g52
tp4062
a(Vbattery
p4063
g62
tp4064
a(g26
g27
tp4065
a(Vnevertheless
p4066
g62
tp4067
a(g26
g27
tp4068
a(Vrecalls
p4069
g75
tp4070
a(Vto
p4071
g147
tp4072
a(Vmy
p4073
g1167
tp4074
a(Vmemory
p4075
g62
tp4076
ag15
aa(lp4077
(g623
g3
tp4078
a(Vwell
p4079
g100
tp4080
a(Vknown
p4081
g169
tp4082
a(Vand
p4083
g59
tp4084
a(Vvery
p4085
g100
tp4086
a(Vextraordinary
p4087
g52
tp4088
a(Vcase
p4089
g62
tp4090
a(Vin
p4091
g18
tp4092
a(Vpoint
p4093
g62
tp4094
a(g26
g27
tp4095
a(Vwhere
p4096
g175
tp4097
a(Vits
p4098
g1167
tp4099
a(Vaction
p4100
g62
tp4101
ag15
aa(lp4102
(Vproved
p4103
g621
tp4104
a(Vthe
p4105
g3
tp4106
a(Vmeans
p4107
g75
tp4108
a(Vof
p4109
g18
tp4110
a(Vrestoring
p4111
g1190
tp4112
a(Vto
p4113
g147
tp4114
a(Vanimation
p4115
g62
tp4116
a(g623
g3
tp4117
a(Vyoung
p4118
g52
tp4119
a(Vattorney
p4120
g62
tp4121
a(Vof
p4122
g18
tp4123
a(VLondon
p4124
g6
tp4125
ag15
aa(lp4126
(Vwho
p4127
g720
tp4128
a(Vhad
p4129
g621
tp4130
a(Vbeen
p4131
g169
tp4132
a(Vinterred
p4133
g169
tp4134
a(Vfor
p4135
g18
tp4136
a(Vtwo
p4137
g766
tp4138
a(Vdays
p4139
g75
tp4140
a(g10
g11
tp4141
a(VThis
p4142
g3
tp4143
a(Voccurred
p4144
g621
tp4145
a(Vin
p4146
g18
tp4147
a(g26
g27
tp4148
a(Vand
p4149
g59
tp4150
a(Vcreated,
p4151
g6
tp4152
ag15
aa(lp4153
(Vat
p4154
g18
tp4155
a(Vthe
p4156
g3
tp4157
a(Vtime
p4158
g62
tp4159
a(g26
g27
tp4160
a(g623
g3
tp4161
a(Vvery
p4162
g100
tp4163
a(Vprofound
p4164
g169
tp4165
a(Vsensation
p4166
g62
tp4167
a(Vwherever
p4168
g100
tp4169
a(Vit
p4170
g138
tp4171
a(Vwas
p4172
g621
tp4173
a(Vmade
p4174
g169
tp4175
a(Vthe
p4176
g3
tp4177
a(Vsubject
p4178
g62
tp4179
ag15
aa(lp4180
(Vof
p4181
g18
tp4182
a(Vconverse
p4183
g62
tp4184
a(g10
g11
tp4185
ag15
aa(lp4186
(VThe
p4187
g3
tp4188
a(Vpatient
p4189
g62
tp4190
a(g26
g27
tp4191
a(VMr.
p4192
g6
tp4193
a(VEdward
p4194
g6
tp4195
a(VStapleton
p4196
g6
tp4197
a(g26
g27
tp4198
a(Vhad
p4199
g621
tp4200
a(Vdied
p4201
g169
tp4202
a(g26
g27
tp4203
a(Vapparently
p4204
g100
tp4205
a(g26
g27
tp4206
a(Vof
p4207
g18
tp4208
a(Vtyphus
p4209
g62
tp4210
ag15
aa(lp4211
(Vfever
p4212
g62
tp4213
a(g26
g27
tp4214
a(Vaccompanied
p4215
g621
tp4216
a(Vwith
p4217
g18
tp4218
a(Vsome
p4219
g3
tp4220
a(Vanomalous
p4221
g52
tp4222
a(Vsymptoms
p4223
g75
tp4224
a(Vwhich
p4225
g80
tp4226
a(Vhad
p4227
g621
tp4228
a(Vexcited
p4229
g169
tp4230
a(Vthe
p4231
g3
tp4232
ag15
aa(lp4233
(Vcuriosity
p4234
g62
tp4235
a(Vof
p4236
g18
tp4237
a(Vhis
p4238
g1167
tp4239
a(Vmedical
p4240
g52
tp4241
a(Vattendants
p4242
g75
tp4243
a(g10
g11
tp4244
a(VUpon
p4245
g6
tp4246
a(Vhis
p4247
g1167
tp4248
a(Vseeming
p4249
g62
tp4250
a(Vdecease
p4251
g62
tp4252
a(g26
g27
tp4253
a(Vhis
p4254
g1167
tp4255
ag15
aa(lp4256
(Vfriends
p4257
g75
tp4258
a(Vwere
p4259
g621
tp4260
a(Vrequested
p4261
g169
tp4262
a(Vto
p4263
g147
tp4264
a(Vsanction
p4265
g62
tp4266
a(g623
g3
tp4267
a(V/post
p4268
g52
tp4269
a(Vmortem/
p4270
g62
tp4271
a(Vexamination
p4272
g62
tp4273
a(g26
g27
tp4274
a(Vbut
p4275
g59
tp4276
ag15
aa(lp4277
(Vdeclined
p4278
g621
tp4279
a(Vto
p4280
g147
tp4281
a(Vpermit
p4282
g132
tp4283
a(Vit
p4284
g138
tp4285
a(g10
g11
tp4286
a(VAs
p4287
g18
tp4288
a(Voften
p4289
g100
tp4290
a(Vhappens
p4291
g87
tp4292
a(Vwhen
p4293
g175
tp4294
a(Vsuch
p4295
g52
tp4296
a(Vrefusals
p4297
g75
tp4298
a(Vare
p4299
g70
tp4300
a(Vmade
p4301
g169
tp4302
a(g26
g27
tp4303
a(Vthe
p4304
g3
tp4305
ag15
aa(lp4306
(Vpractitioners
p4307
g75
tp4308
a(Vresolved
p4309
g621
tp4310
a(Vto
p4311
g147
tp4312
a(Vdisinter
p4313
g132
tp4314
a(Vthe
p4315
g3
tp4316
a(Vbody
p4317
g62
tp4318
a(Vand
p4319
g59
tp4320
a(Vdissect
p4321
g132
tp4322
a(Vit
p4323
g138
tp4324
a(Vat
p4325
g18
tp4326
a(Vleisure,
p4327
g52
tp4328
ag15
aa(lp4329
(Vin
p4330
g18
tp4331
a(Vprivate
p4332
g52
tp4333
a(g10
g11
tp4334
a(VArrangements
p4335
g75
tp4336
a(Vwere
p4337
g621
tp4338
a(Veasily
p4339
g100
tp4340
a(Veffected
p4341
g169
tp4342
a(Vwith
p4343
g18
tp4344
a(Vsome
p4345
g3
tp4346
a(Vof
p4347
g18
tp4348
a(Vthe
p4349
g3
tp4350
a(Vnumerous
p4351
g52
tp4352
ag15
aa(lp4353
(Vcorps
p4354
g75
tp4355
a(Vof
p4356
g18
tp4357
a(Vbody-snatchers
p4358
g75
tp4359
a(Vwith
p4360
g18
tp4361
a(Vwhich
p4362
g80
tp4363
a(VLondon
p4364
g6
tp4365
a(Vabounds
p4366
g87
tp4367
a(g411
g412
tp4368
a(Vand
p4369
g59
tp4370
a(g26
g27
tp4371
a(Vupon
p4372
g18
tp4373
a(Vthe
p4374
g3
tp4375
a(Vthird
p4376
g52
tp4377
ag15
aa(lp4378
(Vnight
p4379
g62
tp4380
a(Vafter
p4381
g18
tp4382
a(Vthe
p4383
g3
tp4384
a(Vfuneral
p4385
g52
tp4386
a(g26
g27
tp4387
a(Vthe
p4388
g3
tp4389
a(Vsupposed
p4390
g169
tp4391
a(Vcorpse
p4392
g62
tp4393
a(Vwas
p4394
g621
tp4395
a(Vunearthed
p4396
g169
tp4397
a(Vfrom
p4398
g18
tp4399
a(g623
g3
tp4400
a(Vgrave
p4401
g62
tp4402
ag15
aa(lp4403
(Veight
p4404
g62
tp4405
a(Vfeet
p4406
g621
tp4407
a(Vdeep
p4408
g62
tp4409
a(g26
g27
tp4410
a(Vand
p4411
g59
tp4412
a(Vdeposited
p4413
g621
tp4414
a(Vin
p4415
g18
tp4416
a(Vthe
p4417
g3
tp4418
a(Voperating
p4419
g62
tp4420
a(Vchamber
p4421
g62
tp4422
a(Vof
p4423
g18
tp4424
a(Vone
p4425
g766
tp4426
a(Vof
p4427
g18
tp4428
a(Vthe
p4429
g3
tp4430
ag15
aa(lp4431
(Vprivate
p4432
g52
tp4433
a(Vhospitals
p4434
g75
tp4435
a(g10
g11
tp4436
ag15
aa(lp4437
(VAn
p4438
g3
tp4439
a(Vincision
p4440
g62
tp4441
a(Vof
p4442
g18
tp4443
a(Vsome
p4444
g3
tp4445
a(Vextent
p4446
g62
tp4447
a(Vhad
p4448
g621
tp4449
a(Vbeen
p4450
g169
tp4451
a(Vactually
p4452
g100
tp4453
a(Vmade
p4454
g169
tp4455
a(Vin
p4456
g18
tp4457
a(Vthe
p4458
g3
tp4459
a(Vabdomen
p4460
g75
tp4461
a(g26
g27
tp4462
a(Vwhen
p4463
g175
tp4464
ag15
aa(lp4465
(Vthe
p4466
g3
tp4467
a(Vfresh
p4468
g52
tp4469
a(Vand
p4470
g59
tp4471
a(Vundecayed
p4472
g169
tp4473
a(Vappearance
p4474
g62
tp4475
a(Vof
p4476
g18
tp4477
a(Vthe
p4478
g3
tp4479
a(Vsubject
p4480
g62
tp4481
a(Vsuggested
p4482
g621
tp4483
a(Van
p4484
g3
tp4485
ag15
aa(lp4486
(Vapplication
p4487
g62
tp4488
a(Vof
p4489
g18
tp4490
a(Vthe
p4491
g3
tp4492
a(Vbattery
p4493
g62
tp4494
a(g10
g11
tp4495
a(VOne
p4496
g766
tp4497
a(Vexperiment
p4498
g62
tp4499
a(Vsucceeded
p4500
g621
tp4501
a(Vanother
p4502
g3
tp4503
a(g26
g27
tp4504
a(Vand
p4505
g59
tp4506
a(Vthe
p4507
g3
tp4508
ag15
aa(lp4509
(Vcustomary
p4510
g52
tp4511
a(Veffects
p4512
g75
tp4513
a(Vsupervened
p4514
g169
tp4515
a(g26
g27
tp4516
a(Vwith
p4517
g18
tp4518
a(Vnothing
p4519
g62
tp4520
a(Vto
p4521
g147
tp4522
a(Vcharacterize
p4523
g132
tp4524
a(Vthem
p4525
g138
tp4526
a(Vin
p4527
g18
tp4528
a(Vany
p4529
g3
tp4530
ag15
aa(lp4531
(Vrespect
p4532
g62
tp4533
a(g26
g27
tp4534
a(Vexcept
p4535
g18
tp4536
a(g26
g27
tp4537
a(Vupon
p4538
g18
tp4539
a(Vone
p4540
g766
tp4541
a(Vor
p4542
g59
tp4543
a(Vtwo
p4544
g766
tp4545
a(Voccasions
p4546
g75
tp4547
a(g26
g27
tp4548
a(g623
g3
tp4549
a(Vmore
p4550
g396
tp4551
a(Vthan
p4552
g18
tp4553
a(Vordinary
p4554
g52
tp4555
a(Vdegree
p4556
g62
tp4557
ag15
aa(lp4558
(Vof
p4559
g18
tp4560
a(Vlife-likeness
p4561
g52
tp4562
a(Vin
p4563
g18
tp4564
a(Vthe
p4565
g3
tp4566
a(Vconvulsive
p4567
g52
tp4568
a(Vaction
p4569
g62
tp4570
a(g10
g11
tp4571
ag15
aa(lp4572
(VIt
p4573
g138
tp4574
a(Vgrew
p4575
g621
tp4576
a(Vlate
p4577
g52
tp4578
a(g10
g11
tp4579
a(VThe
p4580
g3
tp4581
a(Vday
p4582
g62
tp4583
a(Vwas
p4584
g621
tp4585
a(Vabout
p4586
g100
tp4587
a(Vto
p4588
g147
tp4589
a(Vdawn
p4590
g132
tp4591
a(g411
g412
tp4592
a(Vand
p4593
g59
tp4594
a(Vit
p4595
g138
tp4596
a(Vwas
p4597
g621
tp4598
a(Vthought
p4599
g169
tp4600
a(Vexpedient,
p4601
g1446
tp4602
ag15
aa(lp4603
(Vat
p4604
g18
tp4605
a(Vlength
p4606
g62
tp4607
a(g26
g27
tp4608
a(Vto
p4609
g147
tp4610
a(Vproceed
p4611
g132
tp4612
a(Vat
p4613
g18
tp4614
a(Vonce
p4615
g100
tp4616
a(Vto
p4617
g147
tp4618
a(Vthe
p4619
g3
tp4620
a(Vdissection
p4621
g62
tp4622
a(g10
g11
tp4623
a(g869
g3
tp4624
a(Vstudent
p4625
g62
tp4626
a(g26
g27
tp4627
a(Vhowever
p4628
g100
tp4629
a(g26
g27
tp4630
a(Vwas
p4631
g621
tp4632
ag15
aa(lp4633
(Vespecially
p4634
g100
tp4635
a(Vdesirous
p4636
g52
tp4637
a(Vof
p4638
g18
tp4639
a(Vtesting
p4640
g62
tp4641
a(g623
g3
tp4642
a(Vtheory
p4643
g62
tp4644
a(Vof
p4645
g18
tp4646
a(Vhis
p4647
g1167
tp4648
a(Vown
p4649
g52
tp4650
a(g26
g27
tp4651
a(Vand
p4652
g59
tp4653
a(Vinsisted
p4654
g621
tp4655
a(Vupon
p4656
g18
tp4657
ag15
aa(lp4658
(Vapplying
p4659
g1190
tp4660
a(Vthe
p4661
g3
tp4662
a(Vbattery
p4663
g62
tp4664
a(Vto
p4665
g147
tp4666
a(Vone
p4667
g766
tp4668
a(Vof
p4669
g18
tp4670
a(Vthe
p4671
g3
tp4672
a(Vpectoral
p4673
g52
tp4674
a(Vmuscles
p4675
g75
tp4676
a(g10
g11
tp4677
a(g869
g3
tp4678
a(Vrough
p4679
g52
tp4680
a(Vgash
p4681
g62
tp4682
a(Vwas
p4683
g621
tp4684
ag15
aa(lp4685
(Vmade
p4686
g621
tp4687
a(g26
g27
tp4688
a(Vand
p4689
g59
tp4690
a(g623
g3
tp4691
a(Vwire
p4692
g62
tp4693
a(Vhastily
p4694
g100
tp4695
a(Vbrought
p4696
g621
tp4697
a(Vin
p4698
g18
tp4699
a(Vcontact
p4700
g62
tp4701
a(g411
g412
tp4702
a(Vwhen
p4703
g175
tp4704
a(Vthe
p4705
g3
tp4706
a(Vpatient
p4707
g62
tp4708
a(g26
g27
tp4709
a(Vwith
p4710
g18
tp4711
a(g623
g3
tp4712
ag15
aa(lp4713
(Vhurried
p4714
g621
tp4715
a(Vbut
p4716
g59
tp4717
a(Vquite
p4718
g100
tp4719
a(Vunconvulsive
p4720
g52
tp4721
a(Vmovement
p4722
g62
tp4723
a(g26
g27
tp4724
a(Varose
p4725
g62
tp4726
a(Vfrom
p4727
g18
tp4728
a(Vthe
p4729
g3
tp4730
a(Vtable
p4731
g62
tp4732
a(g26
g27
tp4733
a(Vstepped
p4734
g621
tp4735
ag15
aa(lp4736
(Vinto
p4737
g18
tp4738
a(Vthe
p4739
g3
tp4740
a(Vmiddle
p4741
g52
tp4742
a(Vof
p4743
g18
tp4744
a(Vthe
p4745
g3
tp4746
a(Vfloor
p4747
g62
tp4748
a(g26
g27
tp4749
a(Vgazed
p4750
g621
tp4751
a(Vabout
p4752
g18
tp4753
a(Vhim
p4754
g138
tp4755
a(Vuneasily
p4756
g100
tp4757
a(Vfor
p4758
g18
tp4759
a(g623
g3
tp4760
a(Vfew
p4761
g52
tp4762
ag15
aa(lp4763
(Vseconds
p4764
g75
tp4765
a(g26
g27
tp4766
a(Vand
p4767
g59
tp4768
a(Vthen
p4769
g100
tp4770
a(Vspoke
p4771
g132
tp4772
a(g10
g11
tp4773
a(VWhat
p4774
g720
tp4775
a(Vhe
p4776
g138
tp4777
a(Vsaid
p4778
g621
tp4779
a(Vwas
p4780
g621
tp4781
a(Vunintelligible
p4782
g52
tp4783
a(g411
g412
tp4784
a(Vbut
p4785
g59
tp4786
a(Vwords
p4787
g75
tp4788
ag15
aa(lp4789
(Vwere
p4790
g621
tp4791
a(Vuttered
p4792
g169
tp4793
a(g411
g412
tp4794
a(Vthe
p4795
g3
tp4796
a(Vsyllabification
p4797
g62
tp4798
a(Vwas
p4799
g621
tp4800
a(Vdistinct
p4801
g52
tp4802
a(g10
g11
tp4803
a(VHaving
p4804
g1190
tp4805
a(Vspoken
p4806
g169
tp4807
a(g26
g27
tp4808
a(Vhe
p4809
g138
tp4810
a(Vfell
p4811
g621
tp4812
ag15
aa(lp4813
(Vheavily
p4814
g100
tp4815
a(Vto
p4816
g147
tp4817
a(Vthe
p4818
g3
tp4819
a(Vfloor
p4820
g62
tp4821
a(g10
g11
tp4822
ag15
aa(lp4823
(VFor
p4824
g18
tp4825
a(Vsome
p4826
g3
tp4827
a(Vmoments
p4828
g75
tp4829
a(Vall
p4830
g3
tp4831
a(Vwere
p4832
g621
tp4833
a(Vparalyzed
p4834
g169
tp4835
a(Vwith
p4836
g18
tp4837
a(Vawe
p4838
g62
tp4839
a(Vbut
p4840
g59
tp4841
a(Vthe
p4842
g3
tp4843
a(Vurgency
p4844
g62
tp4845
a(Vof
p4846
g18
tp4847
a(Vthe
p4848
g3
tp4849
ag15
aa(lp4850
(Vcase
p4851
g62
tp4852
a(Vsoon
p4853
g100
tp4854
a(Vrestored
p4855
g169
tp4856
a(Vthem
p4857
g138
tp4858
a(Vtheir
p4859
g1167
tp4860
a(Vpresence
p4861
g62
tp4862
a(Vof
p4863
g18
tp4864
a(Vmind
p4865
g62
tp4866
a(g10
g11
tp4867
a(VIt
p4868
g138
tp4869
a(Vwas
p4870
g621
tp4871
a(Vseen
p4872
g169
tp4873
a(Vthat
p4874
g18
tp4875
a(VMr
p4876
g6
tp4877
a(g10
g11
tp4878
ag15
aa(lp4879
(VStapleton
p4880
g6
tp4881
a(Vwas
p4882
g621
tp4883
a(Valive
p4884
g52
tp4885
a(g26
g27
tp4886
a(Valthough
p4887
g18
tp4888
a(Vin
p4889
g18
tp4890
a(g623
g3
tp4891
a(Vswoon
p4892
g62
tp4893
a(g10
g11
tp4894
a(VUpon
p4895
g6
tp4896
a(Vexhibition
p4897
g62
tp4898
a(Vof
p4899
g18
tp4900
a(Vether
p4901
g62
tp4902
a(Vhe
p4903
g138
tp4904
ag15
aa(lp4905
(Vrevived
p4906
g621
tp4907
a(Vand
p4908
g59
tp4909
a(Vwas
p4910
g621
tp4911
a(Vrapidly
p4912
g100
tp4913
a(Vrestored
p4914
g169
tp4915
a(Vto
p4916
g147
tp4917
a(Vhealth
p4918
g62
tp4919
a(g26
g27
tp4920
a(Vand
p4921
g59
tp4922
a(Vto
p4923
g147
tp4924
a(Vthe
p4925
g3
tp4926
a(Vsociety
p4927
g62
tp4928
a(Vof
p4929
g18
tp4930
a(Vhis
p4931
g1167
tp4932
ag15
aa(lp4933
(Vfriends
p4934
g75
tp4935
a(Vfrom
p4936
g18
tp4937
a(Vwhom
p4938
g720
tp4939
a(g26
g27
tp4940
a(Vhowever
p4941
g100
tp4942
a(g26
g27
tp4943
a(Vall
p4944
g3
tp4945
a(Vknowledge
p4946
g62
tp4947
a(Vof
p4948
g18
tp4949
a(Vhis
p4950
g1167
tp4951
a(Vresuscitation
p4952
g62
tp4953
a(Vwas
p4954
g621
tp4955
ag15
aa(lp4956
(Vwithheld
p4957
g62
tp4958
a(g26
g27
tp4959
a(Vuntil
p4960
g18
tp4961
a(g623
g3
tp4962
a(Vrelapse
p4963
g62
tp4964
a(Vwas
p4965
g621
tp4966
a(Vno
p4967
g3
tp4968
a(Vlonger
p4969
g62
tp4970
a(Vto
p4971
g147
tp4972
a(Vbe
p4973
g132
tp4974
a(Vapprehended
p4975
g169
tp4976
a(g10
g11
tp4977
a(VTheir
p4978
g1167
tp4979
a(Vwonder
p4980
g62
tp4981
ag15
aa(lp4982
(Vtheir
p4983
g1167
tp4984
a(Vrapturous
p4985
g52
tp4986
a(Vastonishment
p4987
g62
tp4988
a(Vmay
p4989
g129
tp4990
a(Vbe
p4991
g132
tp4992
a(Vconceived
p4993
g169
tp4994
a(g10
g11
tp4995
ag15
aa(lp4996
(VThe
p4997
g3
tp4998
a(Vmost
p4999
g215
tp5000
a(Vthrilling
p5001
g1190
tp5002
a(Vpeculiarity
p5003
g62
tp5004
a(Vof
p5005
g18
tp5006
a(Vthis
p5007
g3
tp5008
a(Vincident
p5009
g62
tp5010
a(g26
g27
tp5011
a(Vnevertheless
p5012
g62
tp5013
a(g26
g27
tp5014
a(Vis
p5015
g87
tp5016
ag15
aa(lp5017
(Vinvolved
p5018
g621
tp5019
a(Vin
p5020
g18
tp5021
a(Vwhat
p5022
g720
tp5023
a(VMr.
p5024
g6
tp5025
a(VS.
p5026
g6
tp5027
a(Vhimself
p5028
g138
tp5029
a(Vasserts
p5030
g87
tp5031
a(g10
g11
tp5032
a(VHe
p5033
g138
tp5034
a(Vdeclares
p5035
g87
tp5036
a(Vthat
p5037
g18
tp5038
a(Vat
p5039
g18
tp5040
a(Vno
p5041
g3
tp5042
a(Vperiod
p5043
g62
tp5044
ag15
aa(lp5045
(Vwas
p5046
g621
tp5047
a(Vhe
p5048
g138
tp5049
a(Valtogether
p5050
g100
tp5051
a(Vinsensible
p5052
g52
tp5053
a(Vthat
p5054
g18
tp5055
a(g26
g27
tp5056
a(Vdully
p5057
g100
tp5058
a(Vand
p5059
g59
tp5060
a(Vconfusedly
p5061
g100
tp5062
a(g26
g27
tp5063
a(Vhe
p5064
g138
tp5065
a(Vwas
p5066
g621
tp5067
a(Vaware
p5068
g52
tp5069
ag15
aa(lp5070
(Vof
p5071
g18
tp5072
a(Vevery
p5073
g3
tp5074
a(Vthing
p5075
g62
tp5076
a(Vwhich
p5077
g80
tp5078
a(Vhappened
p5079
g169
tp5080
a(Vto
p5081
g147
tp5082
a(Vhim
p5083
g138
tp5084
a(g26
g27
tp5085
a(Vfrom
p5086
g18
tp5087
a(Vthe
p5088
g3
tp5089
a(Vmoment
p5090
g62
tp5091
a(Vin
p5092
g18
tp5093
a(Vwhich
p5094
g80
tp5095
a(Vhe
p5096
g138
tp5097
a(Vwas
p5098
g621
tp5099
ag15
aa(lp5100
(Vpronounced
p5101
g621
tp5102
a(V/dead/
p5103
g52
tp5104
a(Vby
p5105
g18
tp5106
a(Vhis
p5107
g1167
tp5108
a(Vphysicians
p5109
g75
tp5110
a(g26
g27
tp5111
a(Vto
p5112
g147
tp5113
a(Vthat
p5114
g3
tp5115
a(Vin
p5116
g18
tp5117
a(Vwhich
p5118
g80
tp5119
a(Vhe
p5120
g138
tp5121
a(Vfell
p5122
g621
tp5123
a(Vswooning
p5124
g1190
tp5125
ag15
aa(lp5126
(Vto
p5127
g147
tp5128
a(Vthe
p5129
g3
tp5130
a(Vfloor
p5131
g62
tp5132
a(Vof
p5133
g18
tp5134
a(Vthe
p5135
g3
tp5136
a(VHospital
p5137
g6
tp5138
a(g10
g11
tp5139
a(V``
p5140
g46
tp5141
a(g381
g138
tp5142
a(Vam
p5143
g70
tp5144
a(Valive
p5145
g52
tp5146
a(V''
p5147
g56
tp5148
a(Vwere
p5149
g621
tp5150
a(Vthe
p5151
g3
tp5152
a(Vuncomprehended
p5153
g169
tp5154
a(Vwords
p5155
g75
tp5156
ag15
aa(lp5157
(Vwhich
p5158
g80
tp5159
a(g26
g27
tp5160
a(Vupon
p5161
g18
tp5162
a(Vrecognizing
p5163
g62
tp5164
a(Vthe
p5165
g3
tp5166
a(Vlocality
p5167
g62
tp5168
a(Vof
p5169
g18
tp5170
a(Vthe
p5171
g3
tp5172
a(Vdissecting-room
p5173
g52
tp5174
a(g26
g27
tp5175
a(Vhe
p5176
g138
tp5177
a(Vhad
p5178
g621
tp5179
ag15
aa(lp5180
(Vendeavored
p5181
g621
tp5182
a(g26
g27
tp5183
a(Vin
p5184
g18
tp5185
a(Vhis
p5186
g1167
tp5187
a(Vextremity
p5188
g62
tp5189
a(g26
g27
tp5190
a(Vto
p5191
g147
tp5192
a(Vutter
p5193
g132
tp5194
a(g10
g11
tp5195
ag15
aa(lp5196
(VIt
p5197
g138
tp5198
a(Vwere
p5199
g621
tp5200
a(Van
p5201
g3
tp5202
a(Veasy
p5203
g52
tp5204
a(Vmatter
p5205
g62
tp5206
a(Vto
p5207
g147
tp5208
a(Vmultiply
p5209
g100
tp5210
a(Vsuch
p5211
g52
tp5212
a(Vhistories
p5213
g75
tp5214
a(Vas
p5215
g18
tp5216
a(Vthese
p5217
g3
tp5218
a(Vbut
p5219
g59
tp5220
a(g381
g138
tp5221
ag15
aa(lp5222
(Vforbear
p5223
g62
tp5224
a(Vfor
p5225
g18
tp5226
a(g26
g27
tp5227
a(Vindeed
p5228
g100
tp5229
a(g26
g27
tp5230
a(Vwe
p5231
g138
tp5232
a(Vhave
p5233
g70
tp5234
a(Vno
p5235
g3
tp5236
a(Vneed
p5237
g62
tp5238
a(Vof
p5239
g18
tp5240
a(Vsuch
p5241
g52
tp5242
a(Vto
p5243
g147
tp5244
a(Vestablish
p5245
g132
tp5246
a(Vthe
p5247
g3
tp5248
a(Vfact
p5249
g62
tp5250
ag15
aa(lp5251
(Vthat
p5252
g3
tp5253
a(Vpremature
p5254
g62
tp5255
a(Vinterments
p5256
g75
tp5257
a(Voccur
p5258
g70
tp5259
a(g10
g11
tp5260
a(VWhen
p5261
g175
tp5262
a(Vwe
p5263
g138
tp5264
a(Vreflect
p5265
g70
tp5266
a(Vhow
p5267
g175
tp5268
a(Vvery
p5269
g100
tp5270
a(Vrarely
p5271
g100
tp5272
a(g26
g27
tp5273
a(Vfrom
p5274
g18
tp5275
ag15
aa(lp5276
(Vthe
p5277
g3
tp5278
a(Vnature
p5279
g62
tp5280
a(Vof
p5281
g18
tp5282
a(Vthe
p5283
g3
tp5284
a(Vcase
p5285
g62
tp5286
a(g26
g27
tp5287
a(Vwe
p5288
g138
tp5289
a(Vhave
p5290
g70
tp5291
a(Vit
p5292
g138
tp5293
a(Vin
p5294
g18
tp5295
a(Vour
p5296
g1167
tp5297
a(Vpower
p5298
g62
tp5299
a(Vto
p5300
g147
tp5301
a(Vdetect
p5302
g132
tp5303
a(Vthem
p5304
g138
tp5305
a(g26
g27
tp5306
a(Vwe
p5307
g138
tp5308
a(Vmust
p5309
g129
tp5310
ag15
aa(lp5311
(Vadmit
p5312
g62
tp5313
a(Vthat
p5314
g18
tp5315
a(Vthey
p5316
g138
tp5317
a(Vmay
p5318
g129
tp5319
a(V/frequently/
p5320
g132
tp5321
a(Voccur
p5322
g62
tp5323
a(Vwithout
p5324
g18
tp5325
a(Vour
p5326
g1167
tp5327
a(Vcognizance
p5328
g62
tp5329
a(g10
g11
tp5330
a(VScarcely,
p5331
g62
tp5332
ag15
aa(lp5333
(Vin
p5334
g18
tp5335
a(Vtruth
p5336
g62
tp5337
a(g26
g27
tp5338
a(Vis
p5339
g87
tp5340
a(g623
g3
tp5341
a(Vgraveyard
p5342
g62
tp5343
a(Vever
p5344
g100
tp5345
a(Vencroached
p5346
g169
tp5347
a(Vupon
p5348
g18
tp5349
a(g26
g27
tp5350
a(Vfor
p5351
g18
tp5352
a(Vany
p5353
g3
tp5354
a(Vpurpose
p5355
g62
tp5356
a(g26
g27
tp5357
a(Vto
p5358
g147
tp5359
a(Vany
p5360
g3
tp5361
ag15
aa(lp5362
(Vgreat
p5363
g52
tp5364
a(Vextent
p5365
g62
tp5366
a(g26
g27
tp5367
a(Vthat
p5368
g18
tp5369
a(Vskeletons
p5370
g75
tp5371
a(Vare
p5372
g70
tp5373
a(Vnot
p5374
g100
tp5375
a(Vfound
p5376
g169
tp5377
a(Vin
p5378
g18
tp5379
a(Vpostures
p5380
g75
tp5381
a(Vwhich
p5382
g80
tp5383
a(Vsuggest
p5384
g70
tp5385
a(Vthe
p5386
g3
tp5387
ag15
aa(lp5388
(Vmost
p5389
g746
tp5390
a(Vfearful
p5391
g52
tp5392
a(Vof
p5393
g18
tp5394
a(Vsuspicions
p5395
g75
tp5396
a(g10
g11
tp5397
ag15
aa(lp5398
(VFearful
p5399
g6
tp5400
a(Vindeed
p5401
g621
tp5402
a(Vthe
p5403
g3
tp5404
a(Vsuspicion
p5405
g62
tp5406
a(Vbut
p5407
g59
tp5408
a(Vmore
p5409
g396
tp5410
a(Vfearful
p5411
g52
tp5412
a(Vthe
p5413
g3
tp5414
a(Vdoom
p5415
g62
tp5416
a(g630
g11
tp5417
a(VIt
p5418
g138
tp5419
a(Vmay
p5420
g129
tp5421
a(Vbe
p5422
g132
tp5423
ag15
aa(lp5424
(Vasserted
p5425
g621
tp5426
a(g26
g27
tp5427
a(Vwithout
p5428
g18
tp5429
a(Vhesitation
p5430
g62
tp5431
a(g26
g27
tp5432
a(Vthat
p5433
g18
tp5434
a(V/no/
p5435
g1446
tp5436
a(Vevent
p5437
g62
tp5438
a(Vis
p5439
g87
tp5440
a(Vso
p5441
g100
tp5442
a(Vterribly
p5443
g100
tp5444
a(Vwell
p5445
g100
tp5446
ag15
aa(lp5447
(Vadapted
p5448
g621
tp5449
a(Vto
p5450
g147
tp5451
a(Vinspire
p5452
g132
tp5453
a(Vthe
p5454
g3
tp5455
a(Vsupremeness
p5456
g62
tp5457
a(Vof
p5458
g18
tp5459
a(Vbodily
p5460
g100
tp5461
a(Vand
p5462
g59
tp5463
a(Vof
p5464
g18
tp5465
a(Vmental
p5466
g52
tp5467
a(Vdistress
p5468
g62
tp5469
a(g26
g27
tp5470
a(Vas
p5471
g18
tp5472
ag15
aa(lp5473
(Vis
p5474
g87
tp5475
a(Vburial
p5476
g52
tp5477
a(Vbefore
p5478
g18
tp5479
a(Vdeath
p5480
g62
tp5481
a(g10
g11
tp5482
a(VThe
p5483
g3
tp5484
a(Vunendurable
p5485
g52
tp5486
a(Voppression
p5487
g62
tp5488
a(Vof
p5489
g18
tp5490
a(Vthe
p5491
g3
tp5492
a(Vlungs
p5493
g75
tp5494
a(Vthe
p5495
g3
tp5496
ag15
aa(lp5497
(Vstifling
p5498
g1190
tp5499
a(Vfumes
p5500
g75
tp5501
a(Vfrom
p5502
g18
tp5503
a(Vthe
p5504
g3
tp5505
a(Vdamp
p5506
g62
tp5507
a(Vearth
p5508
g62
tp5509
a(Vthe
p5510
g3
tp5511
a(Vclinging
p5512
g62
tp5513
a(Vto
p5514
g147
tp5515
a(Vthe
p5516
g3
tp5517
a(Vdeath
p5518
g62
tp5519
a(Vgarments
p5520
g75
tp5521
ag15
aa(lp5522
(Vthe
p5523
g3
tp5524
a(Vrigid
p5525
g52
tp5526
a(Vembrace
p5527
g62
tp5528
a(Vof
p5529
g18
tp5530
a(Vthe
p5531
g3
tp5532
a(Vnarrow
p5533
g62
tp5534
a(Vhouse
p5535
g62
tp5536
a(Vthe
p5537
g3
tp5538
a(Vblackness
p5539
g62
tp5540
a(Vof
p5541
g18
tp5542
a(Vthe
p5543
g3
tp5544
a(Vabsolute
p5545
g52
tp5546
ag15
aa(lp5547
(VNight
p5548
g62
tp5549
a(Vthe
p5550
g3
tp5551
a(Vsilence
p5552
g62
tp5553
a(Vlike
p5554
g18
tp5555
a(g623
g3
tp5556
a(Vsea
p5557
g62
tp5558
a(Vthat
p5559
g80
tp5560
a(Voverwhelms
p5561
g87
tp5562
a(Vthe
p5563
g3
tp5564
a(Vunseen
p5565
g62
tp5566
a(Vbut
p5567
g59
tp5568
a(Vpalpable
p5569
g52
tp5570
ag15
aa(lp5571
(Vpresence
p5572
g62
tp5573
a(Vof
p5574
g18
tp5575
a(Vthe
p5576
g3
tp5577
a(VConqueror
p5578
g6
tp5579
a(VWorm
p5580
g6
tp5581
a(Vthese
p5582
g3
tp5583
a(Vthings
p5584
g75
tp5585
a(g26
g27
tp5586
a(Vwith
p5587
g18
tp5588
a(Vthoughts
p5589
g75
tp5590
a(Vof
p5591
g18
tp5592
a(Vthe
p5593
g3
tp5594
a(Vair
p5595
g62
tp5596
ag15
aa(lp5597
(Vand
p5598
g59
tp5599
a(Vgrass
p5600
g62
tp5601
a(Vabove
p5602
g18
tp5603
a(g26
g27
tp5604
a(Vwith
p5605
g18
tp5606
a(Vmemory
p5607
g62
tp5608
a(Vof
p5609
g18
tp5610
a(Vdear
p5611
g52
tp5612
a(Vfriends
p5613
g75
tp5614
a(Vwho
p5615
g720
tp5616
a(Vwould
p5617
g129
tp5618
a(Vfly
p5619
g100
tp5620
a(Vto
p5621
g147
tp5622
a(Vsave
p5623
g132
tp5624
a(Vus
p5625
g138
tp5626
a(Vif
p5627
g18
tp5628
ag15
aa(lp5629
(Vbut
p5630
g59
tp5631
a(Vinformed
p5632
g621
tp5633
a(Vof
p5634
g18
tp5635
a(Vour
p5636
g1167
tp5637
a(Vfate
p5638
g62
tp5639
a(g26
g27
tp5640
a(Vand
p5641
g59
tp5642
a(Vwith
p5643
g18
tp5644
a(Vconsciousness
p5645
g62
tp5646
a(Vthat
p5647
g18
tp5648
a(Vof
p5649
g18
tp5650
a(Vthis
p5651
g3
tp5652
a(Vfate
p5653
g62
tp5654
a(Vthey
p5655
g138
tp5656
ag15
aa(lp5657
(Vcan
p5658
g129
tp5659
a(V/never/
p5660
g132
tp5661
a(Vbe
p5662
g132
tp5663
a(Vinformed
p5664
g169
tp5665
a(Vthat
p5666
g18
tp5667
a(Vour
p5668
g1167
tp5669
a(Vhopeless
p5670
g62
tp5671
a(Vportion
p5672
g62
tp5673
a(Vis
p5674
g87
tp5675
a(Vthat
p5676
g18
tp5677
a(Vof
p5678
g18
tp5679
a(Vthe
p5680
g3
tp5681
ag15
aa(lp5682
(Vreally
p5683
g100
tp5684
a(Vdead
p5685
g621
tp5686
a(Vthese
p5687
g3
tp5688
a(Vconsiderations
p5689
g75
tp5690
a(g26
g27
tp5691
a(g381
g138
tp5692
a(Vsay
p5693
g70
tp5694
a(g26
g27
tp5695
a(Vcarry
p5696
g52
tp5697
a(Vinto
p5698
g18
tp5699
a(Vthe
p5700
g3
tp5701
a(Vheart
p5702
g62
tp5703
a(g26
g27
tp5704
a(Vwhich
p5705
g80
tp5706
ag15
aa(lp5707
(Vstill
p5708
g100
tp5709
a(Vpalpitates
p5710
g87
tp5711
a(g26
g27
tp5712
a(g623
g3
tp5713
a(Vdegree
p5714
g62
tp5715
a(Vof
p5716
g18
tp5717
a(Vappalling
p5718
g1190
tp5719
a(Vand
p5720
g59
tp5721
a(Vintolerable
p5722
g52
tp5723
a(Vhorror
p5724
g62
tp5725
a(Vfrom
p5726
g18
tp5727
ag15
aa(lp5728
(Vwhich
p5729
g80
tp5730
a(Vthe
p5731
g3
tp5732
a(Vmost
p5733
g215
tp5734
a(Vdaring
p5735
g1190
tp5736
a(Vimagination
p5737
g62
tp5738
a(Vmust
p5739
g129
tp5740
a(Vrecoil
p5741
g132
tp5742
a(g10
g11
tp5743
a(VWe
p5744
g138
tp5745
a(Vknow
p5746
g70
tp5747
a(Vof
p5748
g18
tp5749
a(Vnothing
p5750
g62
tp5751
a(Vso
p5752
g18
tp5753
ag15
aa(lp5754
(Vagonizing
p5755
g1190
tp5756
a(Vupon
p5757
g18
tp5758
a(VEarth
p5759
g6
tp5760
a(Vwe
p5761
g138
tp5762
a(Vcan
p5763
g129
tp5764
a(Vdream
p5765
g132
tp5766
a(Vof
p5767
g18
tp5768
a(Vnothing
p5769
g62
tp5770
a(Vhalf
p5771
g62
tp5772
a(Vso
p5773
g100
tp5774
a(Vhideous
p5775
g52
tp5776
a(Vin
p5777
g18
tp5778
a(Vthe
p5779
g3
tp5780
ag15
aa(lp5781
(Vrealms
p5782
g75
tp5783
a(Vof
p5784
g18
tp5785
a(Vthe
p5786
g3
tp5787
a(Vnethermost
p5788
g746
tp5789
a(VHell
p5790
g6
tp5791
a(g10
g11
tp5792
a(VAnd
p5793
g59
tp5794
a(Vthus
p5795
g100
tp5796
a(Vall
p5797
g3
tp5798
a(Vnarratives
p5799
g75
tp5800
a(Vupon
p5801
g18
tp5802
a(Vthis
p5803
g3
tp5804
a(Vtopic
p5805
g52
tp5806
ag15
aa(lp5807
(Vhave
p5808
g70
tp5809
a(Van
p5810
g3
tp5811
a(Vinterest
p5812
g62
tp5813
a(Vprofound
p5814
g62
tp5815
a(g411
g412
tp5816
a(Van
p5817
g3
tp5818
a(Vinterest
p5819
g62
tp5820
a(g26
g27
tp5821
a(Vnevertheless
p5822
g62
tp5823
a(g26
g27
tp5824
a(Vwhich
p5825
g80
tp5826
a(g26
g27
tp5827
a(Vthrough
p5828
g18
tp5829
a(Vthe
p5830
g3
tp5831
ag15
aa(lp5832
(Vsacred
p5833
g621
tp5834
a(Vawe
p5835
g138
tp5836
a(Vof
p5837
g18
tp5838
a(Vthe
p5839
g3
tp5840
a(Vtopic
p5841
g52
tp5842
a(Vitself
p5843
g138
tp5844
a(g26
g27
tp5845
a(Vvery
p5846
g100
tp5847
a(Vproperly
p5848
g100
tp5849
a(Vand
p5850
g59
tp5851
a(Vvery
p5852
g100
tp5853
a(Vpeculiarly
p5854
g100
tp5855
ag15
aa(lp5856
(Vdepends
p5857
g75
tp5858
a(Vupon
p5859
g18
tp5860
a(Vour
p5861
g1167
tp5862
a(Vconviction
p5863
g62
tp5864
a(Vof
p5865
g18
tp5866
a(Vthe
p5867
g3
tp5868
a(V/truth/
p5869
g52
tp5870
a(Vof
p5871
g18
tp5872
a(Vthe
p5873
g3
tp5874
a(Vmatter
p5875
g62
tp5876
a(Vnarrated
p5877
g621
tp5878
a(g10
g11
tp5879
a(VWhat
p5880
g720
tp5881
ag15
aa(lp5882
(g381
g138
tp5883
a(Vhave
p5884
g70
tp5885
a(Vnow
p5886
g100
tp5887
a(Vto
p5888
g147
tp5889
a(Vtell
p5890
g132
tp5891
a(g26
g27
tp5892
a(Vis
p5893
g87
tp5894
a(Vof
p5895
g18
tp5896
a(Vmy
p5897
g1167
tp5898
a(Vown
p5899
g52
tp5900
a(Vactual
p5901
g52
tp5902
a(Vknowledge
p5903
g62
tp5904
a(Vof
p5905
g18
tp5906
a(Vmy
p5907
g1167
tp5908
a(Vown
p5909
g52
tp5910
a(Vpositive
p5911
g52
tp5912
ag15
aa(lp5913
(Vand
p5914
g59
tp5915
a(Vpersonal
p5916
g52
tp5917
a(Vexperience
p5918
g62
tp5919
a(g10
g11
tp5920
ag15
aa(lp5921
(VFor
p5922
g18
tp5923
a(Vseveral
p5924
g52
tp5925
a(Vyears
p5926
g75
tp5927
a(g381
g138
tp5928
a(Vhad
p5929
g621
tp5930
a(Vbeen
p5931
g169
tp5932
a(Vsubject
p5933
g52
tp5934
a(Vto
p5935
g147
tp5936
a(Vattacks
p5937
g75
tp5938
a(Vof
p5939
g18
tp5940
a(Vthe
p5941
g3
tp5942
a(Vsingular
p5943
g52
tp5944
a(Vdisorder
p5945
g62
tp5946
ag15
aa(lp5947
(Vwhich
p5948
g80
tp5949
a(Vphysicians
p5950
g75
tp5951
a(Vhave
p5952
g70
tp5953
a(Vagreed
p5954
g169
tp5955
a(Vto
p5956
g147
tp5957
a(Vterm
p5958
g62
tp5959
a(Vcatalepsy
p5960
g62
tp5961
a(g26
g27
tp5962
a(Vin
p5963
g18
tp5964
a(Vdefault
p5965
g62
tp5966
a(Vof
p5967
g18
tp5968
a(g623
g3
tp5969
a(Vmore
p5970
g396
tp5971
ag15
aa(lp5972
(Vdefinitive
p5973
g52
tp5974
a(Vtitle
p5975
g62
tp5976
a(g10
g11
tp5977
a(VAlthough
p5978
g18
tp5979
a(Vboth
p5980
g3
tp5981
a(Vthe
p5982
g3
tp5983
a(Vimmediate
p5984
g52
tp5985
a(Vand
p5986
g59
tp5987
a(Vthe
p5988
g3
tp5989
a(Vpredisposing
p5990
g62
tp5991
ag15
aa(lp5992
(Vcauses
p5993
g75
tp5994
a(g26
g27
tp5995
a(Vand
p5996
g59
tp5997
a(Veven
p5998
g100
tp5999
a(Vthe
p6000
g3
tp6001
a(Vactual
p6002
g52
tp6003
a(Vdiagnosis
p6004
g62
tp6005
a(g26
g27
tp6006
a(Vof
p6007
g18
tp6008
a(Vthis
p6009
g3
tp6010
a(Vdisease
p6011
g62
tp6012
a(g26
g27
tp6013
a(Vare
p6014
g70
tp6015
a(Vstill
p6016
g100
tp6017
ag15
aa(lp6018
(Vmysteries
p6019
g75
tp6020
a(g26
g27
tp6021
a(Vits
p6022
g1167
tp6023
a(Vobvious
p6024
g52
tp6025
a(Vand
p6026
g59
tp6027
a(Vapparent
p6028
g52
tp6029
a(Vcharacter
p6030
g62
tp6031
a(Vis
p6032
g87
tp6033
a(Vsufficiently
p6034
g100
tp6035
a(Vwell
p6036
g100
tp6037
ag15
aa(lp6038
(Vunderstood
p6039
g62
tp6040
a(g10
g11
tp6041
a(VIts
p6042
g1167
tp6043
a(Vvariations
p6044
g75
tp6045
a(Vseem
p6046
g70
tp6047
a(Vto
p6048
g147
tp6049
a(Vbe
p6050
g132
tp6051
a(Vchiefly
p6052
g100
tp6053
a(Vof
p6054
g18
tp6055
a(Vdegree
p6056
g62
tp6057
a(g10
g11
tp6058
a(VSometimes
p6059
g100
tp6060
a(Vthe
p6061
g3
tp6062
ag15
aa(lp6063
(Vpatient
p6064
g62
tp6065
a(Vlies
p6066
g75
tp6067
a(g26
g27
tp6068
a(Vfor
p6069
g18
tp6070
a(g623
g3
tp6071
a(Vday
p6072
g62
tp6073
a(Vonly
p6074
g100
tp6075
a(g26
g27
tp6076
a(Vor
p6077
g59
tp6078
a(Veven
p6079
g100
tp6080
a(Vfor
p6081
g18
tp6082
a(g623
g3
tp6083
a(Vshorter
p6084
g62
tp6085
a(Vperiod
p6086
g62
tp6087
a(g26
g27
tp6088
a(Vin
p6089
g18
tp6090
a(g623
g3
tp6091
a(Vspecies
p6092
g62
tp6093
ag15
aa(lp6094
(Vof
p6095
g18
tp6096
a(Vexaggerated
p6097
g169
tp6098
a(Vlethargy
p6099
g62
tp6100
a(g10
g11
tp6101
a(VHe
p6102
g138
tp6103
a(Vis
p6104
g87
tp6105
a(Vsenseless
p6106
g100
tp6107
a(Vand
p6108
g59
tp6109
a(Vexternally
p6110
g100
tp6111
a(Vmotionless
p6112
g62
tp6113
a(g411
g412
tp6114
a(Vbut
p6115
g59
tp6116
ag15
aa(lp6117
(Vthe
p6118
g3
tp6119
a(Vpulsation
p6120
g62
tp6121
a(Vof
p6122
g18
tp6123
a(Vthe
p6124
g3
tp6125
a(Vheart
p6126
g62
tp6127
a(Vis
p6128
g87
tp6129
a(Vstill
p6130
g100
tp6131
a(Vfaintly
p6132
g100
tp6133
a(Vperceptible
p6134
g52
tp6135
a(g411
g412
tp6136
a(Vsome
p6137
g3
tp6138
a(Vtraces
p6139
g75
tp6140
a(Vof
p6141
g18
tp6142
ag15
aa(lp6143
(Vwarmth
p6144
g62
tp6145
a(Vremain
p6146
g62
tp6147
a(g411
g412
tp6148
a(g623
g3
tp6149
a(Vslight
p6150
g62
tp6151
a(Vcolor
p6152
g62
tp6153
a(Vlingers
p6154
g75
tp6155
a(Vwithin
p6156
g18
tp6157
a(Vthe
p6158
g3
tp6159
a(Vcentre
p6160
g62
tp6161
a(Vof
p6162
g18
tp6163
a(Vthe
p6164
g3
tp6165
a(Vcheek
p6166
g62
tp6167
a(g411
g412
tp6168
ag15
aa(lp6169
(Vand
p6170
g59
tp6171
a(g26
g27
tp6172
a(Vupon
p6173
g18
tp6174
a(Vapplication
p6175
g62
tp6176
a(Vof
p6177
g18
tp6178
a(g623
g3
tp6179
a(Vmirror
p6180
g62
tp6181
a(Vto
p6182
g147
tp6183
a(Vthe
p6184
g3
tp6185
a(Vlips
p6186
g75
tp6187
a(g26
g27
tp6188
a(Vwe
p6189
g138
tp6190
a(Vcan
p6191
g129
tp6192
a(Vdetect
p6193
g132
tp6194
a(g623
g3
tp6195
a(Vtorpid,
p6196
g52
tp6197
ag15
aa(lp6198
(Vunequal
p6199
g52
tp6200
a(g26
g27
tp6201
a(Vand
p6202
g59
tp6203
a(Vvacillating
p6204
g1190
tp6205
a(Vaction
p6206
g62
tp6207
a(Vof
p6208
g18
tp6209
a(Vthe
p6210
g3
tp6211
a(Vlungs
p6212
g75
tp6213
a(g10
g11
tp6214
a(VThen
p6215
g100
tp6216
a(Vagain
p6217
g100
tp6218
a(Vthe
p6219
g3
tp6220
a(Vduration
p6221
g62
tp6222
a(Vof
p6223
g18
tp6224
ag15
aa(lp6225
(Vthe
p6226
g3
tp6227
a(Vtrance
p6228
g62
tp6229
a(Vis
p6230
g87
tp6231
a(Vfor
p6232
g18
tp6233
a(Vweeks
p6234
g75
tp6235
a(Veven
p6236
g100
tp6237
a(Vfor
p6238
g18
tp6239
a(Vmonths
p6240
g75
tp6241
a(g411
g412
tp6242
a(Vwhile
p6243
g18
tp6244
a(Vthe
p6245
g3
tp6246
a(Vclosest
p6247
g746
tp6248
a(Vscrutiny,
p6249
g62
tp6250
ag15
aa(lp6251
(Vand
p6252
g59
tp6253
a(Vthe
p6254
g3
tp6255
a(Vmost
p6256
g215
tp6257
a(Vrigorous
p6258
g52
tp6259
a(Vmedical
p6260
g52
tp6261
a(Vtests
p6262
g75
tp6263
a(g26
g27
tp6264
a(Vfail
p6265
g70
tp6266
a(Vto
p6267
g147
tp6268
a(Vestablish
p6269
g132
tp6270
a(Vany
p6271
g3
tp6272
a(Vmaterial
p6273
g62
tp6274
ag15
aa(lp6275
(Vdistinction
p6276
g62
tp6277
a(Vbetween
p6278
g18
tp6279
a(Vthe
p6280
g3
tp6281
a(Vstate
p6282
g62
tp6283
a(Vof
p6284
g18
tp6285
a(Vthe
p6286
g3
tp6287
a(Vsufferer
p6288
g62
tp6289
a(Vand
p6290
g59
tp6291
a(Vwhat
p6292
g720
tp6293
a(Vwe
p6294
g138
tp6295
a(Vconceive
p6296
g70
tp6297
a(Vof
p6298
g18
tp6299
ag15
aa(lp6300
(Vabsolute
p6301
g62
tp6302
a(Vdeath
p6303
g62
tp6304
a(g10
g11
tp6305
a(VVery
p6306
g6
tp6307
a(Vusually
p6308
g100
tp6309
a(g26
g27
tp6310
a(Vhe
p6311
g138
tp6312
a(Vis
p6313
g87
tp6314
a(Vsaved
p6315
g169
tp6316
a(Vfrom
p6317
g18
tp6318
a(Vpremature
p6319
g62
tp6320
a(Vinterment
p6321
g62
tp6322
ag15
aa(lp6323
(Vsolely
p6324
g100
tp6325
a(Vby
p6326
g18
tp6327
a(Vthe
p6328
g3
tp6329
a(Vknowledge
p6330
g62
tp6331
a(Vof
p6332
g18
tp6333
a(Vhis
p6334
g1167
tp6335
a(Vfriends
p6336
g75
tp6337
a(Vthat
p6338
g80
tp6339
a(Vhe
p6340
g138
tp6341
a(Vhas
p6342
g87
tp6343
a(Vbeen
p6344
g169
tp6345
a(Vpreviously
p6346
g100
tp6347
ag15
aa(lp6348
(Vsubject
p6349
g62
tp6350
a(Vto
p6351
g147
tp6352
a(Vcatalepsy
p6353
g132
tp6354
a(g26
g27
tp6355
a(Vby
p6356
g18
tp6357
a(Vthe
p6358
g3
tp6359
a(Vconsequent
p6360
g62
tp6361
a(Vsuspicion
p6362
g62
tp6363
a(Vexcited
p6364
g621
tp6365
a(g26
g27
tp6366
a(Vand
p6367
g59
tp6368
a(g26
g27
tp6369
a(Vabove
p6370
g18
tp6371
ag15
aa(lp6372
(Vall
p6373
g3
tp6374
a(g26
g27
tp6375
a(Vby
p6376
g18
tp6377
a(Vthe
p6378
g3
tp6379
a(Vnon-appearance
p6380
g62
tp6381
a(Vof
p6382
g18
tp6383
a(Vdecay
p6384
g62
tp6385
a(g10
g11
tp6386
a(VThe
p6387
g3
tp6388
a(Vadvances
p6389
g75
tp6390
a(Vof
p6391
g18
tp6392
a(Vthe
p6393
g3
tp6394
a(Vmalady
p6395
g52
tp6396
a(Vare,
p6397
g62
tp6398
ag15
aa(lp6399
(Vluckily
p6400
g100
tp6401
a(g26
g27
tp6402
a(Vgradual
p6403
g52
tp6404
a(g10
g11
tp6405
a(VThe
p6406
g3
tp6407
a(Vfirst
p6408
g52
tp6409
a(Vmanifestations
p6410
g75
tp6411
a(g26
g27
tp6412
a(Valthough
p6413
g18
tp6414
a(Vmarked
p6415
g169
tp6416
a(g26
g27
tp6417
a(Vare
p6418
g70
tp6419
ag15
aa(lp6420
(Vunequivocal
p6421
g52
tp6422
a(g10
g11
tp6423
a(VThe
p6424
g3
tp6425
a(Vfits
p6426
g75
tp6427
a(Vgrow
p6428
g70
tp6429
a(Vsuccessively
p6430
g100
tp6431
a(Vmore
p6432
g396
tp6433
a(Vand
p6434
g59
tp6435
a(Vmore
p6436
g396
tp6437
a(Vdistinctive
p6438
g52
tp6439
a(g26
g27
tp6440
a(Vand
p6441
g59
tp6442
ag15
aa(lp6443
(Vendure
p6444
g62
tp6445
a(Veach
p6446
g3
tp6447
a(Vfor
p6448
g18
tp6449
a(g623
g3
tp6450
a(Vlonger
p6451
g434
tp6452
a(Vterm
p6453
g62
tp6454
a(Vthan
p6455
g18
tp6456
a(Vthe
p6457
g3
tp6458
a(Vpreceding
p6459
g62
tp6460
a(g10
g11
tp6461
a(VIn
p6462
g18
tp6463
a(Vthis
p6464
g3
tp6465
a(Vlies
p6466
g75
tp6467
a(Vthe
p6468
g3
tp6469
ag15
aa(lp6470
(Vprincipal
p6471
g62
tp6472
a(Vsecurity
p6473
g62
tp6474
a(Vfrom
p6475
g18
tp6476
a(Vinhumation
p6477
g62
tp6478
a(g10
g11
tp6479
a(VThe
p6480
g3
tp6481
a(Vunfortunate
p6482
g62
tp6483
a(Vwhose
p6484
S'WP$'
p6485
tp6486
a(V/first/
p6487
g62
tp6488
a(Vattack
p6489
g62
tp6490
ag15
aa(lp6491
(Vshould
p6492
g129
tp6493
a(Vbe
p6494
g132
tp6495
a(Vof
p6496
g18
tp6497
a(Vthe
p6498
g3
tp6499
a(Vextreme
p6500
g62
tp6501
a(Vcharacter
p6502
g62
tp6503
a(Vwhich
p6504
g80
tp6505
a(Vis
p6506
g87
tp6507
a(Voccasionally
p6508
g100
tp6509
a(Vseen
p6510
g169
tp6511
a(g26
g27
tp6512
a(Vwould
p6513
g129
tp6514
ag15
aa(lp6515
(Valmost
p6516
g100
tp6517
a(Vinevitably
p6518
g100
tp6519
a(Vbe
p6520
g132
tp6521
a(Vconsigned
p6522
g169
tp6523
a(Valive
p6524
g52
tp6525
a(Vto
p6526
g147
tp6527
a(Vthe
p6528
g3
tp6529
a(Vtomb
p6530
g62
tp6531
a(g10
g11
tp6532
ag15
aa(lp6533
(VMy
p6534
g1167
tp6535
a(Vown
p6536
g52
tp6537
a(Vcase
p6538
g62
tp6539
a(Vdiffered
p6540
g169
tp6541
a(Vin
p6542
g18
tp6543
a(Vno
p6544
g3
tp6545
a(Vimportant
p6546
g52
tp6547
a(Vparticular
p6548
g52
tp6549
a(Vfrom
p6550
g18
tp6551
a(Vthose
p6552
g3
tp6553
a(Vmentioned
p6554
g169
tp6555
a(Vin
p6556
g18
tp6557
ag15
aa(lp6558
(Vmedical
p6559
g52
tp6560
a(Vbooks
p6561
g75
tp6562
a(g10
g11
tp6563
a(VSometimes
p6564
g100
tp6565
a(g26
g27
tp6566
a(Vwithout
p6567
g18
tp6568
a(Vany
p6569
g3
tp6570
a(Vapparent
p6571
g52
tp6572
a(Vcause
p6573
g62
tp6574
a(g26
g27
tp6575
a(g381
g138
tp6576
a(Vsank
p6577
g70
tp6578
a(g26
g27
tp6579
a(Vlittle
p6580
g100
tp6581
a(Vby
p6582
g18
tp6583
ag15
aa(lp6584
(Vlittle
p6585
g100
tp6586
a(g26
g27
tp6587
a(Vinto
p6588
g18
tp6589
a(g623
g3
tp6590
a(Vcondition
p6591
g62
tp6592
a(Vof
p6593
g18
tp6594
a(Vhemi-syncope
p6595
g52
tp6596
a(g26
g27
tp6597
a(Vor
p6598
g59
tp6599
a(Vhalf
p6600
g3
tp6601
a(Vswoon
p6602
g62
tp6603
a(g411
g412
tp6604
a(Vand
p6605
g59
tp6606
a(g26
g27
tp6607
a(Vin
p6608
g18
tp6609
a(Vthis
p6610
g3
tp6611
ag15
aa(lp6612
(Vcondition
p6613
g62
tp6614
a(g26
g27
tp6615
a(Vwithout
p6616
g18
tp6617
a(Vpain
p6618
g62
tp6619
a(g26
g27
tp6620
a(Vwithout
p6621
g18
tp6622
a(Vability
p6623
g62
tp6624
a(Vto
p6625
g147
tp6626
a(Vstir
p6627
g132
tp6628
a(g26
g27
tp6629
a(Vor
p6630
g59
tp6631
a(g26
g27
tp6632
a(Vstrictly
p6633
g100
tp6634
a(Vspeaking,
p6635
g52
tp6636
ag15
aa(lp6637
(Vto
p6638
g147
tp6639
a(Vthink
p6640
g132
tp6641
a(g26
g27
tp6642
a(Vbut
p6643
g59
tp6644
a(Vwith
p6645
g18
tp6646
a(g623
g3
tp6647
a(Vdull
p6648
g52
tp6649
a(Vlethargic
p6650
g62
tp6651
a(Vconsciousness
p6652
g62
tp6653
a(Vof
p6654
g18
tp6655
a(Vlife
p6656
g62
tp6657
a(Vand
p6658
g59
tp6659
a(Vof
p6660
g18
tp6661
a(Vthe
p6662
g3
tp6663
ag15
aa(lp6664
(Vpresence
p6665
g62
tp6666
a(Vof
p6667
g18
tp6668
a(Vthose
p6669
g3
tp6670
a(Vwho
p6671
g720
tp6672
a(Vsurrounded
p6673
g169
tp6674
a(Vmy
p6675
g1167
tp6676
a(Vbed
p6677
g169
tp6678
a(g26
g27
tp6679
a(g381
g138
tp6680
a(Vremained
p6681
g621
tp6682
a(g26
g27
tp6683
a(Vuntil
p6684
g18
tp6685
a(Vthe
p6686
g3
tp6687
a(Vcrisis
p6688
g62
tp6689
a(Vof
p6690
g18
tp6691
ag15
aa(lp6692
(Vthe
p6693
g3
tp6694
a(Vdisease
p6695
g62
tp6696
a(Vrestored
p6697
g621
tp6698
a(Vme
p6699
g138
tp6700
a(g26
g27
tp6701
a(Vsuddenly
p6702
g100
tp6703
a(g26
g27
tp6704
a(Vto
p6705
g147
tp6706
a(Vperfect
p6707
g132
tp6708
a(Vsensation
p6709
g62
tp6710
a(g10
g11
tp6711
a(VAt
p6712
g18
tp6713
a(Vother
p6714
g52
tp6715
a(Vtimes
p6716
g75
tp6717
ag15
aa(lp6718
(g381
g138
tp6719
a(Vwas
p6720
g621
tp6721
a(Vquickly
p6722
g100
tp6723
a(Vand
p6724
g59
tp6725
a(Vimpetuously
p6726
g100
tp6727
a(Vsmitten
p6728
g169
tp6729
a(g10
g11
tp6730
a(g381
g138
tp6731
a(Vgrew
p6732
g621
tp6733
a(Vsick
p6734
g52
tp6735
a(g26
g27
tp6736
a(Vand
p6737
g59
tp6738
a(Vnumb
p6739
g62
tp6740
a(g26
g27
tp6741
a(Vand
p6742
g59
tp6743
ag15
aa(lp6744
(Vchilly
p6745
g100
tp6746
a(g26
g27
tp6747
a(Vand
p6748
g59
tp6749
a(Vdizzy
p6750
g62
tp6751
a(g26
g27
tp6752
a(Vand
p6753
g59
tp6754
a(Vso
p6755
g100
tp6756
a(Vfell
p6757
g621
tp6758
a(Vprostrate
p6759
g52
tp6760
a(Vat
p6761
g18
tp6762
a(Vonce
p6763
g100
tp6764
a(g10
g11
tp6765
a(VThen
p6766
g100
tp6767
a(g26
g27
tp6768
a(Vfor
p6769
g18
tp6770
a(Vweeks
p6771
g75
tp6772
a(g26
g27
tp6773
a(Vall
p6774
g3
tp6775
ag15
aa(lp6776
(Vwas
p6777
g621
tp6778
a(Vvoid
p6779
g169
tp6780
a(g26
g27
tp6781
a(Vand
p6782
g59
tp6783
a(Vblack
p6784
g52
tp6785
a(g26
g27
tp6786
a(Vand
p6787
g59
tp6788
a(Vsilent
p6789
g62
tp6790
a(g26
g27
tp6791
a(Vand
p6792
g59
tp6793
a(VNothing
p6794
g6
tp6795
a(Vbecame
p6796
g621
tp6797
a(Vthe
p6798
g3
tp6799
a(Vuniverse
p6800
g62
tp6801
a(g10
g11
tp6802
a(VTotal
p6803
g52
tp6804
ag15
aa(lp6805
(Vannihilation
p6806
g62
tp6807
a(Vcould
p6808
g129
tp6809
a(Vbe
p6810
g132
tp6811
a(Vno
p6812
g100
tp6813
a(Vmore
p6814
g434
tp6815
a(g10
g11
tp6816
a(VFrom
p6817
g18
tp6818
a(Vthese
p6819
g3
tp6820
a(Vlatter
p6821
g62
tp6822
a(Vattacks
p6823
g75
tp6824
a(g381
g138
tp6825
a(Vawoke,
p6826
g70
tp6827
ag15
aa(lp6828
(Vhowever
p6829
g100
tp6830
a(g26
g27
tp6831
a(Vwith
p6832
g18
tp6833
a(g623
g3
tp6834
a(Vgradation
p6835
g62
tp6836
a(Vslow
p6837
g62
tp6838
a(Vin
p6839
g18
tp6840
a(Vproportion
p6841
g62
tp6842
a(Vto
p6843
g147
tp6844
a(Vthe
p6845
g3
tp6846
a(Vsuddenness
p6847
g62
tp6848
a(Vof
p6849
g18
tp6850
a(Vthe
p6851
g3
tp6852
ag15
aa(lp6853
(Vseizure
p6854
g62
tp6855
a(g10
g11
tp6856
a(VJust
p6857
g100
tp6858
a(Vas
p6859
g18
tp6860
a(Vthe
p6861
g3
tp6862
a(Vday
p6863
g62
tp6864
a(Vdawns
p6865
g87
tp6866
a(Vto
p6867
g147
tp6868
a(Vthe
p6869
g3
tp6870
a(Vfriendless
p6871
g62
tp6872
a(Vand
p6873
g59
tp6874
a(Vhouseless
p6875
g62
tp6876
a(Vbeggar
p6877
g62
tp6878
ag15
aa(lp6879
(Vwho
p6880
g720
tp6881
a(Vroams
p6882
g75
tp6883
a(Vthe
p6884
g3
tp6885
a(Vstreets
p6886
g75
tp6887
a(Vthroughout
p6888
g18
tp6889
a(Vthe
p6890
g3
tp6891
a(Vlong
p6892
g52
tp6893
a(Vdesolate
p6894
g62
tp6895
a(Vwinter
p6896
g62
tp6897
a(Vnight
p6898
g62
tp6899
a(Vjust
p6900
g100
tp6901
ag15
aa(lp6902
(Vso
p6903
g18
tp6904
a(Vtardily
p6905
g100
tp6906
a(Vjust
p6907
g100
tp6908
a(Vso
p6909
g100
tp6910
a(Vwearily
p6911
g100
tp6912
a(Vjust
p6913
g100
tp6914
a(Vso
p6915
g100
tp6916
a(Vcheerily
p6917
g100
tp6918
a(Vcame
p6919
g621
tp6920
a(Vback
p6921
g100
tp6922
a(Vthe
p6923
g3
tp6924
a(Vlight
p6925
g62
tp6926
a(Vof
p6927
g18
tp6928
ag15
aa(lp6929
(Vthe
p6930
g3
tp6931
a(VSoul
p6932
g6
tp6933
a(Vto
p6934
g147
tp6935
a(Vme
p6936
g138
tp6937
a(g10
g11
tp6938
ag15
aa(lp6939
(VApart
p6940
g6
tp6941
a(Vfrom
p6942
g18
tp6943
a(Vthe
p6944
g3
tp6945
a(Vtendency
p6946
g62
tp6947
a(Vto
p6948
g147
tp6949
a(Vtrance
p6950
g62
tp6951
a(g26
g27
tp6952
a(Vhowever
p6953
g100
tp6954
a(g26
g27
tp6955
a(Vmy
p6956
g1167
tp6957
a(Vgeneral
p6958
g52
tp6959
a(Vhealth
p6960
g62
tp6961
a(Vappeared
p6962
g621
tp6963
ag15
aa(lp6964
(Vto
p6965
g147
tp6966
a(Vbe
p6967
g132
tp6968
a(Vgood
p6969
g52
tp6970
a(g411
g412
tp6971
a(Vnor
p6972
g59
tp6973
a(Vcould
p6974
g129
tp6975
a(g381
g138
tp6976
a(Vperceive
p6977
g132
tp6978
a(Vthat
p6979
g18
tp6980
a(Vit
p6981
g138
tp6982
a(Vwas
p6983
g621
tp6984
a(Vat
p6985
g18
tp6986
a(Vall
p6987
g3
tp6988
a(Vaffected
p6989
g169
tp6990
a(Vby
p6991
g18
tp6992
a(Vthe
p6993
g3
tp6994
a(Vone
p6995
g766
tp6996
ag15
aa(lp6997
(Vprevalent
p6998
g62
tp6999
a(Vmalady
p7000
g100
tp7001
a(Vunless
p7002
g18
tp7003
a(g26
g27
tp7004
a(Vindeed
p7005
g100
tp7006
a(g26
g27
tp7007
a(Van
p7008
g3
tp7009
a(Vidiosyncrasy
p7010
g52
tp7011
a(Vin
p7012
g18
tp7013
a(Vmy
p7014
g1167
tp7015
a(Vordinary
p7016
g52
tp7017
ag15
aa(lp7018
(V/sleep/
p7019
g62
tp7020
a(Vmay
p7021
g129
tp7022
a(Vbe
p7023
g132
tp7024
a(Vlooked
p7025
g169
tp7026
a(Vupon
p7027
g18
tp7028
a(Vas
p7029
g18
tp7030
a(Vsuperinduced
p7031
g169
tp7032
a(g10
g11
tp7033
a(VUpon
p7034
g6
tp7035
a(Vawaking
p7036
g62
tp7037
a(Vfrom
p7038
g18
tp7039
a(Vslumber
p7040
g62
tp7041
a(g26
g27
tp7042
a(g381
g138
tp7043
ag15
aa(lp7044
(Vcould
p7045
g129
tp7046
a(Vnever
p7047
g100
tp7048
a(Vgain
p7049
g132
tp7050
a(g26
g27
tp7051
a(Vat
p7052
g18
tp7053
a(Vonce
p7054
g100
tp7055
a(g26
g27
tp7056
a(Vthorough
p7057
g18
tp7058
a(Vpossession
p7059
g62
tp7060
a(Vof
p7061
g18
tp7062
a(Vmy
p7063
g1167
tp7064
a(Vsenses
p7065
g75
tp7066
a(g26
g27
tp7067
a(Vand
p7068
g59
tp7069
a(Valways
p7070
g100
tp7071
ag15
aa(lp7072
(Vremained
p7073
g621
tp7074
a(g26
g27
tp7075
a(Vfor
p7076
g18
tp7077
a(Vmany
p7078
g52
tp7079
a(Vminutes
p7080
g75
tp7081
a(g26
g27
tp7082
a(Vin
p7083
g18
tp7084
a(Vmuch
p7085
g52
tp7086
a(Vbewilderment
p7087
g62
tp7088
a(Vand
p7089
g59
tp7090
a(Vperplexity
p7091
g62
tp7092
a(g411
g412
tp7093
a(Vthe
p7094
g3
tp7095
ag15
aa(lp7096
(Vmental
p7097
g52
tp7098
a(Vfaculties
p7099
g75
tp7100
a(Vin
p7101
g18
tp7102
a(Vgeneral
p7103
g52
tp7104
a(g26
g27
tp7105
a(Vbut
p7106
g59
tp7107
a(Vthe
p7108
g3
tp7109
a(Vmemory
p7110
g62
tp7111
a(Vin
p7112
g18
tp7113
a(Vespecial
p7114
g52
tp7115
a(g26
g27
tp7116
a(Vbeing
p7117
g1190
tp7118
a(Vin
p7119
g18
tp7120
a(g623
g3
tp7121
ag15
aa(lp7122
(Vcondition
p7123
g62
tp7124
a(Vof
p7125
g18
tp7126
a(Vabsolute
p7127
g52
tp7128
a(Vabeyance
p7129
g62
tp7130
a(g10
g11
tp7131
ag15
aa(lp7132
(VIn
p7133
g18
tp7134
a(Vall
p7135
g3
tp7136
a(Vthat
p7137
g3
tp7138
a(g381
g138
tp7139
a(Vendured
p7140
g621
tp7141
a(Vthere
p7142
g100
tp7143
a(Vwas
p7144
g621
tp7145
a(Vno
p7146
g3
tp7147
a(Vphysical
p7148
g52
tp7149
a(Vsuffering
p7150
g62
tp7151
a(g26
g27
tp7152
a(Vbut
p7153
g59
tp7154
a(Vof
p7155
g18
tp7156
a(Vmoral
p7157
g52
tp7158
ag15
aa(lp7159
(Vdistress
p7160
g62
tp7161
a(Van
p7162
g3
tp7163
a(Vinfinitude
p7164
g62
tp7165
a(g10
g11
tp7166
a(VMy
p7167
g1167
tp7168
a(Vfancy
p7169
g62
tp7170
a(Vgrew
p7171
g621
tp7172
a(Vcharnel
p7173
g62
tp7174
a(g10
g11
tp7175
a(g381
g138
tp7176
a(Vtalked
p7177
g621
tp7178
a(V``
p7179
g46
tp7180
a(Vof
p7181
g18
tp7182
a(Vworms
p7183
g75
tp7184
a(g26
g27
tp7185
a(Vof
p7186
g18
tp7187
ag15
aa(lp7188
(Vtombs
p7189
g75
tp7190
a(Vand
p7191
g59
tp7192
a(Vepitaphs
p7193
g75
tp7194
a(g10
g11
tp7195
a(V''
p7196
g56
tp7197
a(g381
g138
tp7198
a(Vwas
p7199
g621
tp7200
a(Vlost
p7201
g169
tp7202
a(Vin
p7203
g18
tp7204
a(Vreveries
p7205
g75
tp7206
a(Vof
p7207
g18
tp7208
a(Vdeath
p7209
g62
tp7210
a(g26
g27
tp7211
a(Vand
p7212
g59
tp7213
a(Vthe
p7214
g3
tp7215
a(Videa
p7216
g62
tp7217
a(Vof
p7218
g18
tp7219
ag15
aa(lp7220
(Vpremature
p7221
g62
tp7222
a(Vburial
p7223
g52
tp7224
a(Vheld
p7225
g62
tp7226
a(Vcontinual
p7227
g52
tp7228
a(Vpossession
p7229
g62
tp7230
a(Vof
p7231
g18
tp7232
a(Vmy
p7233
g1167
tp7234
a(Vbrain
p7235
g62
tp7236
a(g10
g11
tp7237
a(VThe
p7238
g3
tp7239
a(Vghastly
p7240
g100
tp7241
ag15
aa(lp7242
(VDanger
p7243
g6
tp7244
a(Vto
p7245
g147
tp7246
a(Vwhich
p7247
g80
tp7248
a(g381
g138
tp7249
a(Vwas
p7250
g621
tp7251
a(Vsubjected
p7252
g169
tp7253
a(g26
g27
tp7254
a(Vhaunted
p7255
g169
tp7256
a(Vme
p7257
g138
tp7258
a(Vday
p7259
g62
tp7260
a(Vand
p7261
g59
tp7262
a(Vnight
p7263
g62
tp7264
a(g10
g11
tp7265
a(VIn
p7266
g18
tp7267
a(Vthe
p7268
g3
tp7269
ag15
aa(lp7270
(Vformer
p7271
g52
tp7272
a(g26
g27
tp7273
a(Vthe
p7274
g3
tp7275
a(Vtorture
p7276
g62
tp7277
a(Vof
p7278
g18
tp7279
a(g1644
g1446
tp7280
a(g488
g412
tp7281
a(Vcolumn
p7282
g62
tp7283
a(g1649
g412
tp7284
a(g493
g412
tp7285
a(g1644
g1446
tp7286
a(Vmeditation
p7287
g62
tp7288
a(Vwas
p7289
g621
tp7290
a(Vexcessive
p7291
g52
tp7292
a(Vin
p7293
g18
tp7294
a(Vthe
p7295
g3
tp7296
ag15
aa(lp7297
(Vlatter
p7298
g62
tp7299
a(g26
g27
tp7300
a(Vsupreme
p7301
g62
tp7302
a(g10
g11
tp7303
a(VWhen
p7304
g175
tp7305
a(Vthe
p7306
g3
tp7307
a(Vgrim
p7308
g52
tp7309
a(VDarkness
p7310
g6
tp7311
a(Voverspread
p7312
g62
tp7313
a(Vthe
p7314
g3
tp7315
a(VEarth
p7316
g6
tp7317
a(g26
g27
tp7318
a(Vthen
p7319
g100
tp7320
a(g26
g27
tp7321
a(Vwith
p7322
g18
tp7323
ag15
aa(lp7324
(Vvery
p7325
g100
tp7326
a(g488
g70
tp7327
a(g488
g412
tp7328
a(Vevery
p7329
g3
tp7330
a(g493
g62
tp7331
a(g493
g412
tp7332
a(Vhorror
p7333
g62
tp7334
a(Vof
p7335
g18
tp7336
a(Vthought
p7337
g62
tp7338
a(g26
g27
tp7339
a(g381
g138
tp7340
a(Vshook
p7341
g70
tp7342
a(Vshook
p7343
g62
tp7344
a(Vlike
p7345
g18
tp7346
a(Vthe
p7347
g3
tp7348
a(Vquivering
p7349
g62
tp7350
ag15
aa(lp7351
(Vplumes
p7352
g75
tp7353
a(Vupon
p7354
g18
tp7355
a(Vthe
p7356
g3
tp7357
a(Vhearse
p7358
g62
tp7359
a(g10
g11
tp7360
a(VWhen
p7361
g175
tp7362
a(VNature
p7363
g6
tp7364
a(Vcould
p7365
g129
tp7366
a(Vendure
p7367
g132
tp7368
a(Vwakefulness
p7369
g62
tp7370
a(Vno
p7371
g3
tp7372
a(Vlonger,
p7373
g62
tp7374
ag15
aa(lp7375
(Vit
p7376
g138
tp7377
a(Vwas
p7378
g621
tp7379
a(Vwith
p7380
g18
tp7381
a(g623
g3
tp7382
a(Vstruggle
p7383
g62
tp7384
a(Vthat
p7385
g80
tp7386
a(g381
g138
tp7387
a(Vconsented
p7388
g621
tp7389
a(Vto
p7390
g147
tp7391
a(Vsleep
p7392
g132
tp7393
a(Vfor
p7394
g18
tp7395
a(g381
g138
tp7396
a(Vshuddered
p7397
g621
tp7398
a(Vto
p7399
g147
tp7400
ag15
aa(lp7401
(Vreflect
p7402
g62
tp7403
a(Vthat
p7404
g18
tp7405
a(g26
g27
tp7406
a(Vupon
p7407
g18
tp7408
a(Vawaking
p7409
g62
tp7410
a(g26
g27
tp7411
a(g381
g138
tp7412
a(Vmight
p7413
g129
tp7414
a(Vfind
p7415
g132
tp7416
a(Vmyself
p7417
g138
tp7418
a(Vthe
p7419
g3
tp7420
a(Vtenant
p7421
g52
tp7422
a(Vof
p7423
g18
tp7424
a(g623
g3
tp7425
a(Vgrave
p7426
g62
tp7427
a(g10
g11
tp7428
ag15
aa(lp7429
(VAnd
p7430
g59
tp7431
a(Vwhen
p7432
g175
tp7433
a(g26
g27
tp7434
a(Vfinally
p7435
g100
tp7436
a(g26
g27
tp7437
a(g381
g138
tp7438
a(Vsank
p7439
g70
tp7440
a(Vinto
p7441
g18
tp7442
a(Vslumber
p7443
g62
tp7444
a(g26
g27
tp7445
a(Vit
p7446
g138
tp7447
a(Vwas
p7448
g621
tp7449
a(Vonly
p7450
g100
tp7451
a(Vto
p7452
g147
tp7453
a(Vrush
p7454
g132
tp7455
a(Vat
p7456
g18
tp7457
a(Vonce
p7458
g100
tp7459
a(Vinto
p7460
g18
tp7461
ag15
aa(lp7462
(g623
g3
tp7463
a(Vworld
p7464
g62
tp7465
a(Vof
p7466
g18
tp7467
a(Vphantasms
p7468
g75
tp7469
a(g26
g27
tp7470
a(Vabove
p7471
g18
tp7472
a(Vwhich
p7473
g80
tp7474
a(g26
g27
tp7475
a(Vwith
p7476
g18
tp7477
a(Vvast
p7478
g52
tp7479
a(g26
g27
tp7480
a(Vsable
p7481
g52
tp7482
a(g26
g27
tp7483
a(Vovershadowing
p7484
g1190
tp7485
a(Vwing,
p7486
g62
tp7487
ag15
aa(lp7488
(Vhovered
p7489
g621
tp7490
a(g26
g27
tp7491
a(Vpredominant
p7492
g52
tp7493
a(g26
g27
tp7494
a(Vthe
p7495
g3
tp7496
a(Vone
p7497
g766
tp7498
a(Vsepulchral
p7499
g52
tp7500
a(VIdea
p7501
g6
tp7502
a(g10
g11
tp7503
ag15
aa(lp7504
(VFrom
p7505
g18
tp7506
a(Vthe
p7507
g3
tp7508
a(Vinnumerable
p7509
g52
tp7510
a(Vimages
p7511
g75
tp7512
a(Vof
p7513
g18
tp7514
a(Vgloom
p7515
g62
tp7516
a(Vwhich
p7517
g80
tp7518
a(Vthus
p7519
g100
tp7520
a(Voppressed
p7521
g621
tp7522
a(Vme
p7523
g138
tp7524
a(Vin
p7525
g18
tp7526
a(Vdreams,
p7527
g6
tp7528
ag15
aa(lp7529
(g381
g138
tp7530
a(Vselect
p7531
g70
tp7532
a(Vfor
p7533
g18
tp7534
a(Vrecord
p7535
g62
tp7536
a(Vbut
p7537
g59
tp7538
a(g623
g3
tp7539
a(Vsolitary
p7540
g52
tp7541
a(Vvision
p7542
g62
tp7543
a(g10
g11
tp7544
a(VMethought
p7545
g6
tp7546
a(g381
g138
tp7547
a(Vwas
p7548
g621
tp7549
a(Vimmersed
p7550
g169
tp7551
a(Vin
p7552
g18
tp7553
a(g623
g3
tp7554
ag15
aa(lp7555
(Vcataleptic
p7556
g52
tp7557
a(Vtrance
p7558
g62
tp7559
a(Vof
p7560
g18
tp7561
a(Vmore
p7562
g434
tp7563
a(Vthan
p7564
g18
tp7565
a(Vusual
p7566
g52
tp7567
a(Vduration
p7568
g62
tp7569
a(Vand
p7570
g59
tp7571
a(Vprofundity
p7572
g62
tp7573
a(g10
g11
tp7574
a(VSuddenly
p7575
g100
tp7576
ag15
aa(lp7577
(Vthere
p7578
g67
tp7579
a(Vcame
p7580
g621
tp7581
a(Van
p7582
g3
tp7583
a(Vicy
p7584
g62
tp7585
a(Vhand
p7586
g62
tp7587
a(Vupon
p7588
g18
tp7589
a(Vmy
p7590
g1167
tp7591
a(Vforehead
p7592
g62
tp7593
a(g26
g27
tp7594
a(Vand
p7595
g59
tp7596
a(Van
p7597
g3
tp7598
a(Vimpatient
p7599
g62
tp7600
a(g26
g27
tp7601
a(Vgibbering
p7602
g1190
tp7603
ag15
aa(lp7604
(Vvoice
p7605
g62
tp7606
a(Vwhispered
p7607
g621
tp7608
a(Vthe
p7609
g3
tp7610
a(Vword
p7611
g62
tp7612
a(V``
p7613
g46
tp7614
a(VArise
p7615
g6
tp7616
a(g630
g11
tp7617
a(V''
p7618
g56
tp7619
a(Vwithin
p7620
g18
tp7621
a(Vmy
p7622
g1167
tp7623
a(Vear
p7624
g62
tp7625
a(g10
g11
tp7626
ag15
aa(lp7627
(g381
g138
tp7628
a(Vsat
p7629
g70
tp7630
a(Verect
p7631
g52
tp7632
a(g10
g11
tp7633
a(VThe
p7634
g3
tp7635
a(Vdarkness
p7636
g62
tp7637
a(Vwas
p7638
g621
tp7639
a(Vtotal
p7640
g52
tp7641
a(g10
g11
tp7642
a(g381
g138
tp7643
a(Vcould
p7644
g129
tp7645
a(Vnot
p7646
g100
tp7647
a(Vsee
p7648
g132
tp7649
a(Vthe
p7650
g3
tp7651
a(Vfigure
p7652
g62
tp7653
a(Vof
p7654
g18
tp7655
a(Vhim
p7656
g138
tp7657
ag15
aa(lp7658
(Vwho
p7659
g720
tp7660
a(Vhad
p7661
g621
tp7662
a(Varoused
p7663
g169
tp7664
a(Vme
p7665
g138
tp7666
a(g10
g11
tp7667
a(g381
g138
tp7668
a(Vcould
p7669
g129
tp7670
a(Vcall
p7671
g132
tp7672
a(Vto
p7673
g147
tp7674
a(Vmind
p7675
g132
tp7676
a(Vneither
p7677
g3
tp7678
a(Vthe
p7679
g3
tp7680
a(Vperiod
p7681
g62
tp7682
a(Vat
p7683
g18
tp7684
a(Vwhich
p7685
g80
tp7686
a(g381
g138
tp7687
ag15
aa(lp7688
(Vhad
p7689
g621
tp7690
a(Vfallen
p7691
g169
tp7692
a(Vinto
p7693
g18
tp7694
a(Vthe
p7695
g3
tp7696
a(Vtrance
p7697
g62
tp7698
a(g26
g27
tp7699
a(Vnor
p7700
g59
tp7701
a(Vthe
p7702
g3
tp7703
a(Vlocality
p7704
g62
tp7705
a(Vin
p7706
g18
tp7707
a(Vwhich
p7708
g80
tp7709
a(g381
g138
tp7710
a(Vthen
p7711
g100
tp7712
a(Vlay
p7713
g70
tp7714
a(g10
g11
tp7715
a(VWhile
p7716
g18
tp7717
ag15
aa(lp7718
(g381
g138
tp7719
a(Vremained
p7720
g621
tp7721
a(Vmotionless
p7722
g62
tp7723
a(g26
g27
tp7724
a(Vand
p7725
g59
tp7726
a(Vbusied
p7727
g621
tp7728
a(Vin
p7729
g18
tp7730
a(Vendeavors
p7731
g75
tp7732
a(Vto
p7733
g147
tp7734
a(Vcollect
p7735
g132
tp7736
a(Vmy
p7737
g1167
tp7738
a(Vthoughts,
p7739
g62
tp7740
ag15
aa(lp7741
(Vthe
p7742
g3
tp7743
a(Vcold
p7744
g62
tp7745
a(Vhand
p7746
g62
tp7747
a(Vgrasped
p7748
g621
tp7749
a(Vme
p7750
g138
tp7751
a(Vfiercely
p7752
g100
tp7753
a(Vby
p7754
g18
tp7755
a(Vthe
p7756
g3
tp7757
a(Vwrist
p7758
g62
tp7759
a(g26
g27
tp7760
a(Vshaking
p7761
g1190
tp7762
a(Vit
p7763
g138
tp7764
a(Vpetulantly,
p7765
g1446
tp7766
ag15
aa(lp7767
(Vwhile
p7768
g18
tp7769
a(Vthe
p7770
g3
tp7771
a(Vgibbering
p7772
g62
tp7773
a(Vvoice
p7774
g62
tp7775
a(Vsaid
p7776
g621
tp7777
a(Vagain:
p7778
g1446
tp7779
ag15
aa(lp7780
(V``
p7781
g46
tp7782
a(VArise
p7783
g6
tp7784
a(g630
g11
tp7785
a(Vdid
p7786
g621
tp7787
a(g381
g138
tp7788
a(Vnot
p7789
g100
tp7790
a(Vbid
p7791
g621
tp7792
a(Vthee
p7793
g62
tp7794
a(Varise
p7795
g62
tp7796
a(g782
g11
tp7797
a(V''
p7798
g56
tp7799
ag15
aa(lp7800
(V``
p7801
g46
tp7802
a(VAnd
p7803
g59
tp7804
a(Vwho
p7805
g720
tp7806
a(g26
g27
tp7807
a(V''
p7808
g56
tp7809
a(g381
g138
tp7810
a(Vdemanded
p7811
g621
tp7812
a(g26
g27
tp7813
a(V``
p7814
g46
tp7815
a(Vart
p7816
g62
tp7817
a(Vthou
p7818
g138
tp7819
a(g782
g11
tp7820
a(V''
p7821
g56
tp7822
ag15
aa(lp7823
(V``
p7824
g46
tp7825
a(g381
g138
tp7826
a(Vam
p7827
g70
tp7828
a(Vcalled
p7829
g169
tp7830
a(V/Shadow/
p7831
g1446
tp7832
a(Vin
p7833
g18
tp7834
a(Vthe
p7835
g3
tp7836
a(Vregions
p7837
g75
tp7838
a(Vwhich
p7839
g80
tp7840
a(g381
g138
tp7841
a(Vinhabit
p7842
g70
tp7843
a(g26
g27
tp7844
a(V''
p7845
g56
tp7846
a(Vreplied
p7847
g621
tp7848
a(Vthe
p7849
g3
tp7850
a(Vvoice
p7851
g62
tp7852
ag15
aa(lp7853
(Vmournfully
p7854
g100
tp7855
a(g411
g412
tp7856
a(V``
p7857
g46
tp7858
a(g381
g138
tp7859
a(Vwas
p7860
g621
tp7861
a(Vmortal
p7862
g52
tp7863
a(g26
g27
tp7864
a(Vbut
p7865
g59
tp7866
a(Vam
p7867
g70
tp7868
a(Vfiend
p7869
g62
tp7870
a(g10
g11
tp7871
a(g381
g138
tp7872
a(Vwas
p7873
g621
tp7874
a(Vmerciless
p7875
g52
tp7876
a(g26
g27
tp7877
a(Vbut
p7878
g59
tp7879
a(Vam
p7880
g70
tp7881
ag15
aa(lp7882
(Vpitiful
p7883
g52
tp7884
a(g10
g11
tp7885
a(VThou
p7886
g6
tp7887
a(Vdost
p7888
g621
tp7889
a(Vfeel
p7890
g62
tp7891
a(Vthat
p7892
g18
tp7893
a(g381
g138
tp7894
a(Vshudder
p7895
g70
tp7896
a(g10
g11
tp7897
a(VMy
p7898
g1167
tp7899
a(Vteeth
p7900
g62
tp7901
a(Vchatter
p7902
g62
tp7903
a(Vas
p7904
g18
tp7905
a(g381
g138
tp7906
a(Vspeak
p7907
g70
tp7908
a(g26
g27
tp7909
a(Vyet
p7910
g100
tp7911
ag15
aa(lp7912
(Vit
p7913
g138
tp7914
a(Vis
p7915
g87
tp7916
a(Vnot
p7917
g100
tp7918
a(Vwith
p7919
g18
tp7920
a(Vthe
p7921
g3
tp7922
a(Vchilliness
p7923
g62
tp7924
a(Vof
p7925
g18
tp7926
a(Vthe
p7927
g3
tp7928
a(Vnight
p7929
g62
tp7930
a(Vof
p7931
g18
tp7932
a(Vthe
p7933
g3
tp7934
a(Vnight
p7935
g62
tp7936
a(Vwithout
p7937
g18
tp7938
a(Vend
p7939
g62
tp7940
a(g10
g11
tp7941
ag15
aa(lp7942
(VBut
p7943
g59
tp7944
a(Vthis
p7945
g3
tp7946
a(Vhideousness
p7947
g62
tp7948
a(Vis
p7949
g87
tp7950
a(Vinsufferable
p7951
g52
tp7952
a(g10
g11
tp7953
a(VHow
p7954
g175
tp7955
a(Vcanst
p7956
g52
tp7957
a(V/thou/
p7958
g62
tp7959
a(Vtranquilly
p7960
g100
tp7961
a(Vsleep
p7962
g132
tp7963
a(g782
g11
tp7964
ag15
aa(lp7965
(V/I/
p7966
g62
tp7967
a(Vcan
p7968
g129
tp7969
a(Vnot
p7970
g100
tp7971
a(Vrest
p7972
g132
tp7973
a(Vfor
p7974
g18
tp7975
a(Vthe
p7976
g3
tp7977
a(Vcry
p7978
g62
tp7979
a(Vof
p7980
g18
tp7981
a(Vthese
p7982
g3
tp7983
a(Vgreat
p7984
g52
tp7985
a(Vagonies
p7986
g75
tp7987
a(g10
g11
tp7988
a(VThese
p7989
g3
tp7990
a(Vsights
p7991
g75
tp7992
a(Vare
p7993
g70
tp7994
ag15
aa(lp7995
(Vmore
p7996
g434
tp7997
a(Vthan
p7998
g18
tp7999
a(g381
g138
tp8000
a(Vcan
p8001
g129
tp8002
a(Vbear
p8003
g132
tp8004
a(g10
g11
tp8005
a(VGet
p8006
g62
tp8007
a(Vthee
p8008
g70
tp8009
a(Vup
p8010
S'RP'
p8011
tp8012
a(g630
g11
tp8013
a(VCome
p8014
g6
tp8015
a(Vwith
p8016
g18
tp8017
a(Vme
p8018
g138
tp8019
a(Vinto
p8020
g18
tp8021
a(Vthe
p8022
g3
tp8023
a(Vouter
p8024
g62
tp8025
a(VNight,
p8026
g62
tp8027
ag15
aa(lp8028
(Vand
p8029
g59
tp8030
a(Vlet
p8031
g621
tp8032
a(Vme
p8033
g138
tp8034
a(Vunfold
p8035
g621
tp8036
a(Vto
p8037
g147
tp8038
a(Vthee
p8039
g132
tp8040
a(Vthe
p8041
g3
tp8042
a(Vgraves
p8043
g75
tp8044
a(g10
g11
tp8045
a(VIs
p8046
g87
tp8047
a(Vnot
p8048
g100
tp8049
a(Vthis
p8050
g3
tp8051
a(g623
g3
tp8052
a(Vspectacle
p8053
g62
tp8054
a(Vof
p8055
g18
tp8056
a(Vwoe
p8057
g62
tp8058
a(g782
g11
tp8059
ag15
aa(lp8060
(VBehold
p8061
g6
tp8062
a(g630
g412
tp8063
a(V''
p8064
g56
tp8065
ag15
aa(lp8066
(g381
g138
tp8067
a(Vlooked
p8068
g621
tp8069
a(g411
g412
tp8070
a(Vand
p8071
g59
tp8072
a(Vthe
p8073
g3
tp8074
a(Vunseen
p8075
g62
tp8076
a(Vfigure
p8077
g62
tp8078
a(g26
g27
tp8079
a(Vwhich
p8080
g80
tp8081
a(Vstill
p8082
g100
tp8083
a(Vgrasped
p8084
g621
tp8085
a(Vme
p8086
g138
tp8087
a(Vby
p8088
g18
tp8089
a(Vthe
p8090
g3
tp8091
a(Vwrist,
p8092
g6
tp8093
ag15
aa(lp8094
(Vhad
p8095
g621
tp8096
a(Vcaused
p8097
g169
tp8098
a(Vto
p8099
g147
tp8100
a(Vbe
p8101
g132
tp8102
a(Vthrown
p8103
g169
tp8104
a(Vopen
p8105
g52
tp8106
a(Vthe
p8107
g3
tp8108
a(Vgraves
p8109
g75
tp8110
a(Vof
p8111
g18
tp8112
a(Vall
p8113
g3
tp8114
a(Vmankind
p8115
g62
tp8116
a(g411
g412
tp8117
a(Vand
p8118
g59
tp8119
a(Vfrom
p8120
g18
tp8121
a(Veach
p8122
g3
tp8123
ag15
aa(lp8124
(Vissued
p8125
g621
tp8126
a(Vthe
p8127
g3
tp8128
a(Vfaint
p8129
g62
tp8130
a(Vphosphoric
p8131
g52
tp8132
a(Vradiance
p8133
g62
tp8134
a(Vof
p8135
g18
tp8136
a(Vdecay
p8137
g62
tp8138
a(g26
g27
tp8139
a(Vso
p8140
g100
tp8141
a(Vthat
p8142
g18
tp8143
a(g381
g138
tp8144
a(Vcould
p8145
g129
tp8146
a(Vsee
p8147
g132
tp8148
a(Vinto
p8149
g18
tp8150
ag15
aa(lp8151
(Vthe
p8152
g3
tp8153
a(Vinnermost
p8154
g62
tp8155
a(Vrecesses
p8156
g87
tp8157
a(g26
g27
tp8158
a(Vand
p8159
g59
tp8160
a(Vthere
p8161
g67
tp8162
a(Vview
p8163
g62
tp8164
a(Vthe
p8165
g3
tp8166
a(Vshrouded
p8167
g169
tp8168
a(Vbodies
p8169
g75
tp8170
a(Vin
p8171
g18
tp8172
a(Vtheir
p8173
g1167
tp8174
a(Vsad
p8175
g52
tp8176
ag15
aa(lp8177
(Vand
p8178
g59
tp8179
a(Vsolemn
p8180
g621
tp8181
a(Vslumbers
p8182
g75
tp8183
a(Vwith
p8184
g18
tp8185
a(Vthe
p8186
g3
tp8187
a(Vworm
p8188
g62
tp8189
a(g10
g11
tp8190
a(VBut
p8191
g59
tp8192
a(g26
g27
tp8193
a(Valas
p8194
g75
tp8195
a(g630
g11
tp8196
a(Vthe
p8197
g3
tp8198
a(Vreal
p8199
g52
tp8200
a(Vsleepers
p8201
g75
tp8202
a(Vwere
p8203
g621
tp8204
ag15
aa(lp8205
(Vfewer
p8206
g434
tp8207
a(g26
g27
tp8208
a(Vby
p8209
g18
tp8210
a(Vmany
p8211
g52
tp8212
a(Vmillions
p8213
g75
tp8214
a(g26
g27
tp8215
a(Vthan
p8216
g18
tp8217
a(Vthose
p8218
g3
tp8219
a(Vwho
p8220
g720
tp8221
a(Vslumbered
p8222
g169
tp8223
a(Vnot
p8224
g100
tp8225
a(Vat
p8226
g18
tp8227
a(Vall
p8228
g3
tp8229
a(g411
g412
tp8230
a(Vand
p8231
g59
tp8232
a(Vthere
p8233
g67
tp8234
ag15
aa(lp8235
(Vwas
p8236
g621
tp8237
a(g623
g3
tp8238
a(Vfeeble
p8239
g52
tp8240
a(Vstruggling
p8241
g62
tp8242
a(g411
g412
tp8243
a(Vand
p8244
g59
tp8245
a(Vthere
p8246
g67
tp8247
a(Vwas
p8248
g621
tp8249
a(g623
g3
tp8250
a(Vgeneral
p8251
g52
tp8252
a(Vsad
p8253
g62
tp8254
a(Vunrest
p8255
g62
tp8256
a(g411
g412
tp8257
a(Vand
p8258
g59
tp8259
a(g26
g27
tp8260
a(Vfrom
p8261
g18
tp8262
ag15
aa(lp8263
(Vout
p8264
g18
tp8265
a(Vthe
p8266
g3
tp8267
a(Vdepths
p8268
g75
tp8269
a(Vof
p8270
g18
tp8271
a(Vthe
p8272
g3
tp8273
a(Vcountless
p8274
g62
tp8275
a(Vpits
p8276
g87
tp8277
a(g26
g27
tp8278
a(Vthere
p8279
g67
tp8280
a(Vcame
p8281
g621
tp8282
a(g623
g3
tp8283
a(Vmelancholy
p8284
g100
tp8285
a(Vrustling
p8286
g1190
tp8287
ag15
aa(lp8288
(Vfrom
p8289
g18
tp8290
a(Vthe
p8291
g3
tp8292
a(Vgarments
p8293
g75
tp8294
a(Vof
p8295
g18
tp8296
a(Vthe
p8297
g3
tp8298
a(Vburied
p8299
g52
tp8300
a(g10
g11
tp8301
a(VAnd
p8302
g59
tp8303
a(g26
g27
tp8304
a(Vof
p8305
g18
tp8306
a(Vthose
p8307
g3
tp8308
a(Vwho
p8309
g720
tp8310
a(Vseemed
p8311
g169
tp8312
a(Vtranquilly
p8313
g100
tp8314
a(Vto
p8315
g147
tp8316
ag15
aa(lp8317
(Vrepose
p8318
g62
tp8319
a(g26
g27
tp8320
a(g381
g138
tp8321
a(Vsaw
p8322
g621
tp8323
a(Vthat
p8324
g18
tp8325
a(g623
g3
tp8326
a(Vvast
p8327
g52
tp8328
a(Vnumber
p8329
g62
tp8330
a(Vhad
p8331
g621
tp8332
a(Vchanged
p8333
g169
tp8334
a(g26
g27
tp8335
a(Vin
p8336
g18
tp8337
a(g623
g3
tp8338
a(Vgreater
p8339
g434
tp8340
a(Vor
p8341
g59
tp8342
a(Vless
p8343
g434
tp8344
ag15
aa(lp8345
(Vdegree
p8346
g62
tp8347
a(g26
g27
tp8348
a(Vthe
p8349
g3
tp8350
a(Vrigid
p8351
g52
tp8352
a(Vand
p8353
g59
tp8354
a(Vuneasy
p8355
g52
tp8356
a(Vposition
p8357
g62
tp8358
a(Vin
p8359
g18
tp8360
a(Vwhich
p8361
g80
tp8362
a(Vthey
p8363
g138
tp8364
a(Vhad
p8365
g621
tp8366
a(Voriginally
p8367
g100
tp8368
a(Vbeen
p8369
g169
tp8370
ag15
aa(lp8371
(Ventombed
p8372
g621
tp8373
a(g10
g11
tp8374
a(VAnd
p8375
g59
tp8376
a(Vthe
p8377
g3
tp8378
a(Vvoice
p8379
g62
tp8380
a(Vagain
p8381
g100
tp8382
a(Vsaid
p8383
g621
tp8384
a(Vto
p8385
g147
tp8386
a(Vme
p8387
g138
tp8388
a(g26
g27
tp8389
a(Vas
p8390
g18
tp8391
a(g381
g138
tp8392
a(Vgazed:
p8393
g70
tp8394
ag15
aa(lp8395
(V``
p8396
g46
tp8397
a(VIs
p8398
g87
tp8399
a(Vit
p8400
g138
tp8401
a(Vnot
p8402
g100
tp8403
a(Voh
p8404
g132
tp8405
a(g630
g11
tp8406
a(Vis
p8407
g87
tp8408
a(Vit
p8409
g138
tp8410
a(V/not/
p8411
g1446
tp8412
a(g623
g3
tp8413
a(Vpitiful
p8414
g52
tp8415
a(Vsight
p8416
g62
tp8417
a(g782
g11
tp8418
a(V''
p8419
g56
tp8420
a(Vbut
p8421
g59
tp8422
a(g26
g27
tp8423
a(Vbefore
p8424
g18
tp8425
a(g381
g138
tp8426
a(Vcould
p8427
g129
tp8428
a(Vfind
p8429
g132
tp8430
ag15
aa(lp8431
(Vwords
p8432
g75
tp8433
a(Vto
p8434
g147
tp8435
a(Vreply
p8436
g100
tp8437
a(g26
g27
tp8438
a(Vthe
p8439
g3
tp8440
a(Vfigure
p8441
g62
tp8442
a(Vhad
p8443
g621
tp8444
a(Vceased
p8445
g169
tp8446
a(Vto
p8447
g147
tp8448
a(Vgrasp
p8449
g132
tp8450
a(Vmy
p8451
g1167
tp8452
a(Vwrist
p8453
g62
tp8454
a(g26
g27
tp8455
a(Vthe
p8456
g3
tp8457
a(Vphosphoric
p8458
g52
tp8459
ag15
aa(lp8460
(Vlights
p8461
g75
tp8462
a(Vexpired
p8463
g621
tp8464
a(g26
g27
tp8465
a(Vand
p8466
g59
tp8467
a(Vthe
p8468
g3
tp8469
a(Vgraves
p8470
g75
tp8471
a(Vwere
p8472
g621
tp8473
a(Vclosed
p8474
g169
tp8475
a(Vwith
p8476
g18
tp8477
a(g623
g3
tp8478
a(Vsudden
p8479
g52
tp8480
a(Vviolence
p8481
g62
tp8482
a(g26
g27
tp8483
a(Vwhile
p8484
g18
tp8485
ag15
aa(lp8486
(Vfrom
p8487
g18
tp8488
a(Vout
p8489
g18
tp8490
a(Vthem
p8491
g138
tp8492
a(Varose
p8493
g70
tp8494
a(g623
g3
tp8495
a(Vtumult
p8496
g62
tp8497
a(Vof
p8498
g18
tp8499
a(Vdespairing
p8500
g1190
tp8501
a(Vcries
p8502
g75
tp8503
a(g26
g27
tp8504
a(Vsaying
p8505
g1190
tp8506
a(Vagain
p8507
g100
tp8508
a(V``
p8509
g46
tp8510
a(VIs
p8511
g87
tp8512
a(Vit
p8513
g138
tp8514
ag15
aa(lp8515
(Vnot
p8516
g100
tp8517
a(Voh
p8518
g70
tp8519
a(g26
g27
tp8520
a(VGod
p8521
g6
tp8522
a(g630
g11
tp8523
a(Vis
p8524
g87
tp8525
a(Vit
p8526
g138
tp8527
a(V/not/
p8528
g1446
tp8529
a(g623
g3
tp8530
a(Vvery
p8531
g100
tp8532
a(Vpitiful
p8533
g52
tp8534
a(Vsight
p8535
g62
tp8536
a(g782
g11
tp8537
a(V''
p8538
g56
tp8539
ag15
aa(lp8540
(VPhantasies
p8541
g75
tp8542
a(Vsuch
p8543
g52
tp8544
a(Vas
p8545
g18
tp8546
a(Vthese
p8547
g3
tp8548
a(g26
g27
tp8549
a(Vpresenting
p8550
g1190
tp8551
a(Vthemselves
p8552
g138
tp8553
a(Vat
p8554
g18
tp8555
a(Vnight
p8556
g62
tp8557
a(g26
g27
tp8558
a(Vextended
p8559
g621
tp8560
a(Vtheir
p8561
g1167
tp8562
ag15
aa(lp8563
(Vterrific
p8564
g52
tp8565
a(Vinfluence
p8566
g62
tp8567
a(Vfar
p8568
g100
tp8569
a(Vinto
p8570
g18
tp8571
a(Vmy
p8572
g1167
tp8573
a(Vwaking
p8574
g62
tp8575
a(Vhours
p8576
g75
tp8577
a(g10
g11
tp8578
a(VMy
p8579
g1167
tp8580
a(Vnerves
p8581
g75
tp8582
a(Vbecame
p8583
g621
tp8584
a(Vthoroughly
p8585
g100
tp8586
ag15
aa(lp8587
(Vunstrung
p8588
g62
tp8589
a(g26
g27
tp8590
a(Vand
p8591
g59
tp8592
a(g381
g138
tp8593
a(Vfell
p8594
g621
tp8595
a(g623
g3
tp8596
a(Vprey
p8597
g62
tp8598
a(Vto
p8599
g147
tp8600
a(Vperpetual
p8601
g52
tp8602
a(VHorror
p8603
g6
tp8604
a(g10
g11
tp8605
a(g381
g138
tp8606
a(Vhesitated
p8607
g621
tp8608
a(Vto
p8609
g147
tp8610
a(Vride
p8611
g132
tp8612
a(g26
g27
tp8613
a(Vor
p8614
g59
tp8615
ag15
aa(lp8616
(Vto
p8617
g147
tp8618
a(Vwalk
p8619
g70
tp8620
a(g26
g27
tp8621
a(Vor
p8622
g59
tp8623
a(Vto
p8624
g147
tp8625
a(Vindulge
p8626
g132
tp8627
a(Vin
p8628
g18
tp8629
a(Vany
p8630
g3
tp8631
a(Vexercise
p8632
g62
tp8633
a(Vthat
p8634
g18
tp8635
a(Vwould
p8636
g129
tp8637
a(Vcarry
p8638
g132
tp8639
a(Vme
p8640
g138
tp8641
a(Vfrom
p8642
g18
tp8643
a(Vhome
p8644
g62
tp8645
a(g10
g11
tp8646
a(VIn
p8647
g18
tp8648
ag15
aa(lp8649
(Vfact
p8650
g62
tp8651
a(g26
g27
tp8652
a(g381
g138
tp8653
a(Vno
p8654
g3
tp8655
a(Vlonger
p8656
g62
tp8657
a(Vdared
p8658
g169
tp8659
a(Vtrust
p8660
g62
tp8661
a(Vmyself
p8662
g138
tp8663
a(Vout
p8664
g8011
tp8665
a(Vof
p8666
g18
tp8667
a(Vthe
p8668
g3
tp8669
a(Vimmediate
p8670
g52
tp8671
a(Vpresence
p8672
g62
tp8673
a(Vof
p8674
g18
tp8675
ag15
aa(lp8676
(Vthose
p8677
g3
tp8678
a(Vwho
p8679
g720
tp8680
a(Vwere
p8681
g621
tp8682
a(Vaware
p8683
g70
tp8684
a(Vof
p8685
g18
tp8686
a(Vmy
p8687
g1167
tp8688
a(Vproneness
p8689
g62
tp8690
a(Vto
p8691
g147
tp8692
a(Vcatalepsy
p8693
g132
tp8694
a(g26
g27
tp8695
a(Vlest
p8696
g746
tp8697
a(g26
g27
tp8698
a(Vfalling
p8699
g1190
tp8700
a(Vinto
p8701
g18
tp8702
ag15
aa(lp8703
(Vone
p8704
g766
tp8705
a(Vof
p8706
g18
tp8707
a(Vmy
p8708
g1167
tp8709
a(Vusual
p8710
g52
tp8711
a(Vfits
p8712
g75
tp8713
a(g26
g27
tp8714
a(g381
g138
tp8715
a(Vshould
p8716
g129
tp8717
a(Vbe
p8718
g132
tp8719
a(Vburied
p8720
g169
tp8721
a(Vbefore
p8722
g18
tp8723
a(Vmy
p8724
g1167
tp8725
a(Vreal
p8726
g52
tp8727
a(Vcondition
p8728
g62
tp8729
a(Vcould
p8730
g129
tp8731
ag15
aa(lp8732
(Vbe
p8733
g132
tp8734
a(Vascertained
p8735
g169
tp8736
a(g10
g11
tp8737
a(g381
g138
tp8738
a(Vdoubted
p8739
g621
tp8740
a(Vthe
p8741
g3
tp8742
a(Vcare
p8743
g62
tp8744
a(g26
g27
tp8745
a(Vthe
p8746
g3
tp8747
a(Vfidelity
p8748
g62
tp8749
a(Vof
p8750
g18
tp8751
a(Vmy
p8752
g1167
tp8753
a(Vdearest
p8754
g62
tp8755
a(Vfriends
p8756
g75
tp8757
a(g10
g11
tp8758
ag15
aa(lp8759
(g381
g138
tp8760
a(Vdreaded
p8761
g621
tp8762
a(Vthat
p8763
g18
tp8764
a(g26
g27
tp8765
a(Vin
p8766
g18
tp8767
a(Vsome
p8768
g3
tp8769
a(Vtrance
p8770
g62
tp8771
a(Vof
p8772
g18
tp8773
a(Vmore
p8774
g434
tp8775
a(Vthan
p8776
g18
tp8777
a(Vcustomary
p8778
g52
tp8779
a(Vduration
p8780
g62
tp8781
a(g26
g27
tp8782
a(Vthey
p8783
g138
tp8784
ag15
aa(lp8785
(Vmight
p8786
g129
tp8787
a(Vbe
p8788
g132
tp8789
a(Vprevailed
p8790
g169
tp8791
a(Vupon
p8792
g18
tp8793
a(Vto
p8794
g147
tp8795
a(Vregard
p8796
g132
tp8797
a(Vme
p8798
g138
tp8799
a(Vas
p8800
g18
tp8801
a(Virrecoverable
p8802
g52
tp8803
a(g10
g11
tp8804
a(g381
g138
tp8805
a(Veven
p8806
g100
tp8807
a(Vwent
p8808
g621
tp8809
a(Vso
p8810
g100
tp8811
ag15
aa(lp8812
(Vfar
p8813
g100
tp8814
a(Vas
p8815
g18
tp8816
a(Vto
p8817
g147
tp8818
a(Vfear
p8819
g132
tp8820
a(Vthat
p8821
g18
tp8822
a(g26
g27
tp8823
a(Vas
p8824
g18
tp8825
a(g381
g138
tp8826
a(Voccasioned
p8827
g621
tp8828
a(Vmuch
p8829
g100
tp8830
a(Vtrouble
p8831
g52
tp8832
a(g26
g27
tp8833
a(Vthey
p8834
g138
tp8835
a(Vmight
p8836
g129
tp8837
a(Vbe
p8838
g132
tp8839
a(Vglad
p8840
g169
tp8841
a(Vto
p8842
g147
tp8843
ag15
aa(lp8844
(Vconsider
p8845
g62
tp8846
a(Vany
p8847
g3
tp8848
a(Vvery
p8849
g100
tp8850
a(Vprotracted
p8851
g169
tp8852
a(Vattack
p8853
g62
tp8854
a(Vas
p8855
g18
tp8856
a(Vsufficient
p8857
g62
tp8858
a(Vexcuse
p8859
g62
tp8860
a(Vfor
p8861
g18
tp8862
a(Vgetting
p8863
g1190
tp8864
a(Vrid
p8865
g62
tp8866
ag15
aa(lp8867
(Vof
p8868
g18
tp8869
a(Vme
p8870
g138
tp8871
a(Valtogether
p8872
g100
tp8873
a(g10
g11
tp8874
a(VIt
p8875
g138
tp8876
a(Vwas
p8877
g621
tp8878
a(Vin
p8879
g18
tp8880
a(Vvain
p8881
g62
tp8882
a(Vthey
p8883
g138
tp8884
a(Vendeavored
p8885
g621
tp8886
a(Vto
p8887
g147
tp8888
a(Vreassure
p8889
g132
tp8890
a(Vme
p8891
g138
tp8892
a(Vby
p8893
g18
tp8894
a(Vthe
p8895
g3
tp8896
ag15
aa(lp8897
(Vmost
p8898
g746
tp8899
a(Vsolemn
p8900
g52
tp8901
a(Vpromises
p8902
g75
tp8903
a(g10
g11
tp8904
a(g381
g138
tp8905
a(Vexacted
p8906
g621
tp8907
a(Vthe
p8908
g3
tp8909
a(Vmost
p8910
g746
tp8911
a(Vsacred
p8912
g169
tp8913
a(Voaths
p8914
g75
tp8915
a(Vthat
p8916
g18
tp8917
a(Vunder
p8918
g18
tp8919
a(Vno
p8920
g3
tp8921
ag15
aa(lp8922
(Vcircumstances
p8923
g75
tp8924
a(Vthey
p8925
g138
tp8926
a(Vwould
p8927
g129
tp8928
a(Vbury
p8929
g132
tp8930
a(Vme
p8931
g138
tp8932
a(Vuntil
p8933
g18
tp8934
a(Vdecomposition
p8935
g62
tp8936
a(Vhad
p8937
g621
tp8938
a(Vso
p8939
g100
tp8940
a(Vmaterially
p8941
g100
tp8942
ag15
aa(lp8943
(Vadvanced
p8944
g621
tp8945
a(Vas
p8946
g18
tp8947
a(Vto
p8948
g147
tp8949
a(Vrender
p8950
g62
tp8951
a(Vfurther
p8952
g100
tp8953
a(Vpreservation
p8954
g62
tp8955
a(Vimpossible
p8956
g52
tp8957
a(g10
g11
tp8958
a(VAnd
p8959
g59
tp8960
a(g26
g27
tp8961
a(Veven
p8962
g100
tp8963
a(Vthen,
p8964
g1446
tp8965
ag15
aa(lp8966
(Vmy
p8967
g1167
tp8968
a(Vmortal
p8969
g62
tp8970
a(Vterrors
p8971
g75
tp8972
a(Vwould
p8973
g129
tp8974
a(Vlisten
p8975
g132
tp8976
a(Vto
p8977
g147
tp8978
a(Vno
p8979
g3
tp8980
a(Vreason
p8981
g62
tp8982
a(Vwould
p8983
g129
tp8984
a(Vaccept
p8985
g132
tp8986
a(Vno
p8987
g3
tp8988
ag15
aa(lp8989
(Vconsolation
p8990
g62
tp8991
a(g10
g11
tp8992
a(g381
g138
tp8993
a(Ventered
p8994
g621
tp8995
a(Vinto
p8996
g18
tp8997
a(g623
g3
tp8998
a(Vseries
p8999
g62
tp9000
a(Vof
p9001
g18
tp9002
a(Velaborate
p9003
g52
tp9004
a(Vprecautions
p9005
g75
tp9006
a(g10
g11
tp9007
a(VAmong
p9008
g18
tp9009
ag15
aa(lp9010
(Vother
p9011
g52
tp9012
a(Vthings
p9013
g75
tp9014
a(g26
g27
tp9015
a(g381
g138
tp9016
a(Vhad
p9017
g621
tp9018
a(Vthe
p9019
g3
tp9020
a(Vfamily
p9021
g62
tp9022
a(Vvault
p9023
g62
tp9024
a(Vso
p9025
g100
tp9026
a(Vremodelled
p9027
g169
tp9028
a(Vas
p9029
g18
tp9030
a(Vto
p9031
g147
tp9032
a(Vadmit
p9033
g132
tp9034
a(Vof
p9035
g18
tp9036
a(Vbeing
p9037
g1190
tp9038
ag15
aa(lp9039
(Vreadily
p9040
g100
tp9041
a(Vopened
p9042
g621
tp9043
a(Vfrom
p9044
g18
tp9045
a(Vwithin
p9046
g18
tp9047
a(g10
g11
tp9048
a(VThe
p9049
g3
tp9050
a(Vslightest
p9051
g746
tp9052
a(Vpressure
p9053
g62
tp9054
a(Vupon
p9055
g18
tp9056
a(g623
g3
tp9057
a(Vlong
p9058
g52
tp9059
a(Vlever
p9060
g62
tp9061
ag15
aa(lp9062
(Vthat
p9063
g3
tp9064
a(Vextended
p9065
g621
tp9066
a(Vfar
p9067
g100
tp9068
a(Vinto
p9069
g18
tp9070
a(Vthe
p9071
g3
tp9072
a(Vtomb
p9073
g62
tp9074
a(Vwould
p9075
g129
tp9076
a(Vcause
p9077
g132
tp9078
a(Vthe
p9079
g3
tp9080
a(Viron
p9081
g62
tp9082
a(Vportals
p9083
g75
tp9084
a(Vto
p9085
g147
tp9086
a(Vfly
p9087
g100
tp9088
ag15
aa(lp9089
(Vback
p9090
g100
tp9091
a(g10
g11
tp9092
a(VThere
p9093
g67
tp9094
a(Vwere
p9095
g621
tp9096
a(Varrangements
p9097
g75
tp9098
a(Valso
p9099
g100
tp9100
a(Vfor
p9101
g18
tp9102
a(Vthe
p9103
g3
tp9104
a(Vfree
p9105
g52
tp9106
a(Vadmission
p9107
g62
tp9108
a(Vof
p9109
g18
tp9110
a(Vair
p9111
g62
tp9112
a(Vand
p9113
g59
tp9114
ag15
aa(lp9115
(Vlight
p9116
g62
tp9117
a(g26
g27
tp9118
a(Vand
p9119
g59
tp9120
a(Vconvenient
p9121
g52
tp9122
a(Vreceptacles
p9123
g75
tp9124
a(Vfor
p9125
g18
tp9126
a(Vfood
p9127
g62
tp9128
a(Vand
p9129
g59
tp9130
a(Vwater
p9131
g62
tp9132
a(g26
g27
tp9133
a(Vwithin
p9134
g18
tp9135
a(Vimmediate
p9136
g52
tp9137
ag15
aa(lp9138
(Vreach
p9139
g62
tp9140
a(Vof
p9141
g18
tp9142
a(Vthe
p9143
g3
tp9144
a(Vcoffin
p9145
g62
tp9146
a(Vintended
p9147
g621
tp9148
a(Vfor
p9149
g18
tp9150
a(Vmy
p9151
g1167
tp9152
a(Vreception
p9153
g62
tp9154
a(g10
g11
tp9155
a(VThis
p9156
g3
tp9157
a(Vcoffin
p9158
g62
tp9159
a(Vwas
p9160
g621
tp9161
a(Vwarmly
p9162
g100
tp9163
ag15
aa(lp9164
(Vand
p9165
g59
tp9166
a(Vsoftly
p9167
g100
tp9168
a(Vpadded
p9169
g621
tp9170
a(g26
g27
tp9171
a(Vand
p9172
g59
tp9173
a(Vwas
p9174
g621
tp9175
a(Vprovided
p9176
g169
tp9177
a(Vwith
p9178
g18
tp9179
a(g623
g3
tp9180
a(Vlid
p9181
g52
tp9182
a(g26
g27
tp9183
a(Vfashioned
p9184
g169
tp9185
a(Vupon
p9186
g18
tp9187
a(Vthe
p9188
g3
tp9189
ag15
aa(lp9190
(Vprinciple
p9191
g62
tp9192
a(Vof
p9193
g18
tp9194
a(Vthe
p9195
g3
tp9196
a(Vvault-door
p9197
g52
tp9198
a(g26
g27
tp9199
a(Vwith
p9200
g18
tp9201
a(Vthe
p9202
g3
tp9203
a(Vaddition
p9204
g62
tp9205
a(Vof
p9206
g18
tp9207
a(Vsprings
p9208
g75
tp9209
a(Vso
p9210
g18
tp9211
a(Vcontrived
p9212
g169
tp9213
ag15
aa(lp9214
(Vthat
p9215
g3
tp9216
a(Vthe
p9217
g3
tp9218
a(Vfeeblest
p9219
g746
tp9220
a(Vmovement
p9221
g62
tp9222
a(Vof
p9223
g18
tp9224
a(Vthe
p9225
g3
tp9226
a(Vbody
p9227
g62
tp9228
a(Vwould
p9229
g129
tp9230
a(Vbe
p9231
g132
tp9232
a(Vsufficient
p9233
g52
tp9234
a(Vto
p9235
g147
tp9236
a(Vset
p9237
g132
tp9238
a(Vit
p9239
g138
tp9240
a(Vat
p9241
g18
tp9242
ag15
aa(lp9243
(Vliberty
p9244
g62
tp9245
a(g10
g11
tp9246
a(VBesides
p9247
g18
tp9248
a(Vall
p9249
g3
tp9250
a(Vthis
p9251
g3
tp9252
a(g26
g27
tp9253
a(Vthere
p9254
g67
tp9255
a(Vwas
p9256
g621
tp9257
a(Vsuspended
p9258
g169
tp9259
a(Vfrom
p9260
g18
tp9261
a(Vthe
p9262
g3
tp9263
a(Vroof
p9264
g62
tp9265
a(Vof
p9266
g18
tp9267
a(Vthe
p9268
g3
tp9269
ag15
aa(lp9270
(Vtomb
p9271
g62
tp9272
a(g26
g27
tp9273
a(g623
g3
tp9274
a(Vlarge
p9275
g52
tp9276
a(Vbell
p9277
g62
tp9278
a(g26
g27
tp9279
a(Vthe
p9280
g3
tp9281
a(Vrope
p9282
g62
tp9283
a(Vof
p9284
g18
tp9285
a(Vwhich
p9286
g80
tp9287
a(g26
g27
tp9288
a(Vit
p9289
g138
tp9290
a(Vwas
p9291
g621
tp9292
a(Vdesigned
p9293
g169
tp9294
a(g26
g27
tp9295
a(Vshould
p9296
g129
tp9297
a(Vextend
p9298
g132
tp9299
ag15
aa(lp9300
(Vthrough
p9301
g18
tp9302
a(g623
g3
tp9303
a(Vhole
p9304
g62
tp9305
a(Vin
p9306
g18
tp9307
a(Vthe
p9308
g3
tp9309
a(Vcoffin
p9310
g62
tp9311
a(g26
g27
tp9312
a(Vand
p9313
g59
tp9314
a(Vso
p9315
g100
tp9316
a(Vbe
p9317
g132
tp9318
a(Vfastened
p9319
g169
tp9320
a(Vto
p9321
g147
tp9322
a(Vone
p9323
g766
tp9324
a(Vof
p9325
g18
tp9326
a(Vthe
p9327
g3
tp9328
a(Vhands
p9329
g75
tp9330
a(Vof
p9331
g18
tp9332
ag15
aa(lp9333
(Vthe
p9334
g3
tp9335
a(Vcorpse
p9336
g62
tp9337
a(g10
g11
tp9338
a(VBut
p9339
g59
tp9340
a(g26
g27
tp9341
a(Valas
p9342
g75
tp9343
a(g630
g11
tp9344
a(Vwhat
p9345
g720
tp9346
a(Vavails
p9347
g75
tp9348
a(Vthe
p9349
g3
tp9350
a(Vvigilance
p9351
g62
tp9352
a(Vagainst
p9353
g18
tp9354
a(Vthe
p9355
g3
tp9356
a(VDestiny
p9357
g6
tp9358
a(Vof
p9359
g18
tp9360
ag15
aa(lp9361
(Vman
p9362
g62
tp9363
a(g782
g11
tp9364
a(VNot
p9365
g100
tp9366
a(Veven
p9367
g100
tp9368
a(Vthese
p9369
g3
tp9370
a(Vwell
p9371
g100
tp9372
a(Vcontrived
p9373
g621
tp9374
a(Vsecurities
p9375
g75
tp9376
a(Vsuffice
p9377
g62
tp9378
a(Vto
p9379
g147
tp9380
a(Vsave
p9381
g132
tp9382
a(Vfrom
p9383
g18
tp9384
a(Vthe
p9385
g3
tp9386
ag15
aa(lp9387
(Vuttermost
p9388
g62
tp9389
a(Vagonies
p9390
g75
tp9391
a(Vof
p9392
g18
tp9393
a(Vliving
p9394
g1190
tp9395
a(Vinhumation
p9396
g62
tp9397
a(g26
g27
tp9398
a(g623
g3
tp9399
a(Vwretch
p9400
g62
tp9401
a(Vto
p9402
g147
tp9403
a(Vthese
p9404
g3
tp9405
a(Vagonies
p9406
g75
tp9407
ag15
aa(lp9408
(Vforedoomed
p9409
g621
tp9410
a(g630
g46
tp9411
ag15
aa(lp9412
(VThere
p9413
g67
tp9414
a(Varrived
p9415
g169
tp9416
a(Van
p9417
g3
tp9418
a(Vepoch
p9419
g62
tp9420
a(Vas
p9421
g18
tp9422
a(Voften
p9423
g100
tp9424
a(Vbefore
p9425
g18
tp9426
a(Vthere
p9427
g67
tp9428
a(Vhad
p9429
g621
tp9430
a(Varrived
p9431
g169
tp9432
a(Vin
p9433
g18
tp9434
a(Vwhich
p9435
g80
tp9436
a(g381
g138
tp9437
ag15
aa(lp9438
(Vfound
p9439
g621
tp9440
a(Vmyself
p9441
g138
tp9442
a(Vemerging
p9443
g1190
tp9444
a(Vfrom
p9445
g18
tp9446
a(Vtotal
p9447
g52
tp9448
a(Vunconsciousness
p9449
g62
tp9450
a(Vinto
p9451
g18
tp9452
a(Vthe
p9453
g3
tp9454
a(Vfirst
p9455
g52
tp9456
a(Vfeeble
p9457
g52
tp9458
ag15
aa(lp9459
(Vand
p9460
g59
tp9461
a(Vindefinite
p9462
g621
tp9463
a(Vsense
p9464
g62
tp9465
a(Vof
p9466
g18
tp9467
a(Vexistence
p9468
g62
tp9469
a(g10
g11
tp9470
a(VSlowly
p9471
g100
tp9472
a(Vwith
p9473
g18
tp9474
a(g623
g3
tp9475
a(Vtortoise
p9476
g62
tp9477
a(Vgradation
p9478
g62
tp9479
ag15
aa(lp9480
(Vapproached
p9481
g621
tp9482
a(Vthe
p9483
g3
tp9484
a(Vfaint
p9485
g62
tp9486
a(Vgray
p9487
g62
tp9488
a(Vdawn
p9489
g62
tp9490
a(Vof
p9491
g18
tp9492
a(Vthe
p9493
g3
tp9494
a(Vpsychal
p9495
g52
tp9496
a(Vday
p9497
g62
tp9498
a(g10
g11
tp9499
a(g869
g3
tp9500
a(Vtorpid
p9501
g52
tp9502
a(Vuneasiness
p9503
g62
tp9504
a(g10
g11
tp9505
ag15
aa(lp9506
(VAn
p9507
g3
tp9508
a(Vapathetic
p9509
g52
tp9510
a(Vendurance
p9511
g62
tp9512
a(Vof
p9513
g18
tp9514
a(Vdull
p9515
g62
tp9516
a(Vpain
p9517
g62
tp9518
a(g10
g11
tp9519
a(VNo
p9520
g3
tp9521
a(Vcare
p9522
g62
tp9523
a(Vno
p9524
g3
tp9525
a(Vhope
p9526
g62
tp9527
a(Vno
p9528
g3
tp9529
a(Veffort
p9530
g62
tp9531
a(g10
g11
tp9532
ag15
aa(lp9533
(VThen
p9534
g100
tp9535
a(g26
g27
tp9536
a(Vafter
p9537
g18
tp9538
a(g623
g3
tp9539
a(Vlong
p9540
g52
tp9541
a(Vinterval
p9542
g62
tp9543
a(g26
g27
tp9544
a(g623
g3
tp9545
a(Vringing
p9546
g62
tp9547
a(Vin
p9548
g18
tp9549
a(Vthe
p9550
g3
tp9551
a(Vears
p9552
g75
tp9553
a(g411
g412
tp9554
a(Vthen
p9555
g100
tp9556
a(g26
g27
tp9557
a(Vafter
p9558
g18
tp9559
a(g623
g3
tp9560
a(Vlapse
p9561
g62
tp9562
ag15
aa(lp9563
(Vstill
p9564
g100
tp9565
a(Vlonger
p9566
g434
tp9567
a(g26
g27
tp9568
a(g623
g3
tp9569
a(Vpricking
p9570
g62
tp9571
a(Vor
p9572
g59
tp9573
a(Vtingling
p9574
g1190
tp9575
a(Vsensation
p9576
g62
tp9577
a(Vin
p9578
g18
tp9579
a(Vthe
p9580
g3
tp9581
a(Vextremities
p9582
g75
tp9583
a(g411
g412
tp9584
a(Vthen
p9585
g100
tp9586
ag15
aa(lp9587
(g623
g3
tp9588
a(Vseemingly
p9589
g100
tp9590
a(Veternal
p9591
g52
tp9592
a(Vperiod
p9593
g62
tp9594
a(Vof
p9595
g18
tp9596
a(Vpleasurable
p9597
g52
tp9598
a(Vacquiescence
p9599
g62
tp9600
a(g26
g27
tp9601
a(Vduring
p9602
g18
tp9603
a(Vwhich
p9604
g80
tp9605
a(Vthe
p9606
g3
tp9607
ag15
aa(lp9608
(Vawakening
p9609
g1190
tp9610
a(Vfeelings
p9611
g75
tp9612
a(Vare
p9613
g70
tp9614
a(Vstruggling
p9615
g1190
tp9616
a(Vinto
p9617
g18
tp9618
a(Vthought
p9619
g62
tp9620
a(g411
g412
tp9621
a(Vthen
p9622
g100
tp9623
a(g623
g3
tp9624
a(Vbrief
p9625
g62
tp9626
a(Vre-sinking
p9627
g62
tp9628
ag15
aa(lp9629
(Vinto
p9630
g18
tp9631
a(Vnon-entity
p9632
g62
tp9633
a(g411
g412
tp9634
a(Vthen
p9635
g100
tp9636
a(g623
g3
tp9637
a(Vsudden
p9638
g52
tp9639
a(Vrecovery
p9640
g62
tp9641
a(g10
g11
tp9642
a(VAt
p9643
g18
tp9644
a(Vlength
p9645
g62
tp9646
a(g26
g27
tp9647
a(Vthe
p9648
g3
tp9649
a(Vslight
p9650
g62
tp9651
a(Vquivering
p9652
g1190
tp9653
ag15
aa(lp9654
(Vof
p9655
g18
tp9656
a(Van
p9657
g3
tp9658
a(Veyelid
p9659
g52
tp9660
a(g26
g27
tp9661
a(Vand
p9662
g59
tp9663
a(g26
g27
tp9664
a(Vimmediately
p9665
g100
tp9666
a(Vthereupon
p9667
g18
tp9668
a(g26
g27
tp9669
a(Van
p9670
g3
tp9671
a(Velectric
p9672
g52
tp9673
a(Vshock
p9674
g62
tp9675
a(Vof
p9676
g18
tp9677
a(g623
g3
tp9678
a(Vterror,
p9679
g52
tp9680
ag15
aa(lp9681
(Vdeadly
p9682
g100
tp9683
a(Vand
p9684
g59
tp9685
a(Vindefinite
p9686
g132
tp9687
a(g26
g27
tp9688
a(Vwhich
p9689
g80
tp9690
a(Vsends
p9691
g75
tp9692
a(Vthe
p9693
g3
tp9694
a(Vblood
p9695
g62
tp9696
a(Vin
p9697
g18
tp9698
a(Vtorrents
p9699
g75
tp9700
a(Vfrom
p9701
g18
tp9702
a(Vthe
p9703
g3
tp9704
ag15
aa(lp9705
(Vtemples
p9706
g75
tp9707
a(Vto
p9708
g147
tp9709
a(Vthe
p9710
g3
tp9711
a(Vheart
p9712
g62
tp9713
a(g10
g11
tp9714
a(VAnd
p9715
g59
tp9716
a(Vnow
p9717
g100
tp9718
a(Vthe
p9719
g3
tp9720
a(Vfirst
p9721
g52
tp9722
a(Vpositive
p9723
g52
tp9724
a(Veffort
p9725
g62
tp9726
a(Vto
p9727
g147
tp9728
a(Vthink
p9729
g132
tp9730
a(g10
g11
tp9731
a(VAnd
p9732
g59
tp9733
ag15
aa(lp9734
(Vnow
p9735
g100
tp9736
a(Vthe
p9737
g3
tp9738
a(Vfirst
p9739
g52
tp9740
a(Vendeavor
p9741
g62
tp9742
a(Vto
p9743
g147
tp9744
a(Vremember
p9745
g132
tp9746
a(g10
g11
tp9747
a(VAnd
p9748
g59
tp9749
a(Vnow
p9750
g100
tp9751
a(g623
g3
tp9752
a(Vpartial
p9753
g52
tp9754
a(Vand
p9755
g59
tp9756
a(Vevanescent
p9757
g62
tp9758
ag15
aa(lp9759
(Vsuccess
p9760
g62
tp9761
a(g10
g11
tp9762
a(VAnd
p9763
g59
tp9764
a(Vnow
p9765
g100
tp9766
a(Vthe
p9767
g3
tp9768
a(Vmemory
p9769
g62
tp9770
a(Vhas
p9771
g87
tp9772
a(Vso
p9773
g100
tp9774
a(Vfar
p9775
g100
tp9776
a(Vregained
p9777
g169
tp9778
a(Vits
p9779
g1167
tp9780
a(Vdominion
p9781
g62
tp9782
a(Vthat
p9783
g80
tp9784
a(g26
g27
tp9785
a(Vin
p9786
g18
tp9787
ag15
aa(lp9788
(Vsome
p9789
g3
tp9790
a(Vmeasure
p9791
g62
tp9792
a(g26
g27
tp9793
a(g381
g138
tp9794
a(Vam
p9795
g70
tp9796
a(Vcognizant
p9797
g52
tp9798
a(Vof
p9799
g18
tp9800
a(Vmy
p9801
g1167
tp9802
a(Vstate
p9803
g62
tp9804
a(g10
g11
tp9805
a(g381
g138
tp9806
a(Vfeel
p9807
g70
tp9808
a(Vthat
p9809
g18
tp9810
a(g381
g138
tp9811
a(Vam
p9812
g70
tp9813
a(Vnot
p9814
g100
tp9815
a(Vawaking
p9816
g1190
tp9817
ag15
aa(lp9818
(Vfrom
p9819
g18
tp9820
a(Vordinary
p9821
g52
tp9822
a(Vsleep
p9823
g62
tp9824
a(g10
g11
tp9825
a(g381
g138
tp9826
a(Vrecollect
p9827
g70
tp9828
a(Vthat
p9829
g18
tp9830
a(g381
g138
tp9831
a(Vhave
p9832
g70
tp9833
a(Vbeen
p9834
g169
tp9835
a(Vsubject
p9836
g52
tp9837
a(Vto
p9838
g147
tp9839
a(Vcatalepsy
p9840
g52
tp9841
a(g10
g11
tp9842
ag15
aa(lp9843
(VAnd
p9844
g59
tp9845
a(Vnow
p9846
g100
tp9847
a(g26
g27
tp9848
a(Vat
p9849
g18
tp9850
a(Vlast
p9851
g52
tp9852
a(g26
g27
tp9853
a(Vas
p9854
g18
tp9855
a(Vif
p9856
g18
tp9857
a(Vby
p9858
g18
tp9859
a(Vthe
p9860
g3
tp9861
a(Vrush
p9862
g52
tp9863
a(Vof
p9864
g18
tp9865
a(Van
p9866
g3
tp9867
a(Vocean
p9868
g52
tp9869
a(g26
g27
tp9870
a(Vmy
p9871
g1167
tp9872
a(Vshuddering
p9873
g62
tp9874
a(Vspirit
p9875
g62
tp9876
a(Vis
p9877
g87
tp9878
ag15
aa(lp9879
(Voverwhelmed
p9880
g621
tp9881
a(Vby
p9882
g18
tp9883
a(Vthe
p9884
g3
tp9885
a(Vone
p9886
g766
tp9887
a(Vgrim
p9888
g52
tp9889
a(VDanger
p9890
g6
tp9891
a(Vby
p9892
g18
tp9893
a(Vthe
p9894
g3
tp9895
a(Vone
p9896
g766
tp9897
a(Vspectral
p9898
g52
tp9899
a(Vand
p9900
g59
tp9901
ag15
aa(lp9902
(Vever-prevalent
p9903
g52
tp9904
a(VIdea
p9905
g6
tp9906
a(g10
g11
tp9907
ag15
aa(lp9908
(VFor
p9909
g18
tp9910
a(Vsome
p9911
g3
tp9912
a(Vminutes
p9913
g75
tp9914
a(Vafter
p9915
g18
tp9916
a(Vthis
p9917
g3
tp9918
a(Vfancy
p9919
g62
tp9920
a(Vpossessed
p9921
g621
tp9922
a(Vme
p9923
g138
tp9924
a(g26
g27
tp9925
a(g381
g138
tp9926
a(Vremained
p9927
g621
tp9928
a(Vwithout
p9929
g18
tp9930
ag15
aa(lp9931
(Vmotion
p9932
g62
tp9933
a(g10
g11
tp9934
a(VAnd
p9935
g59
tp9936
a(Vwhy
p9937
g175
tp9938
a(g782
g11
tp9939
a(g381
g138
tp9940
a(Vcould
p9941
g129
tp9942
a(Vnot
p9943
g100
tp9944
a(Vsummon
p9945
g132
tp9946
a(Vcourage
p9947
g62
tp9948
a(Vto
p9949
g147
tp9950
a(Vmove
p9951
g132
tp9952
a(g10
g11
tp9953
a(g381
g138
tp9954
a(Vdared
p9955
g621
tp9956
a(Vnot
p9957
g100
tp9958
a(Vmake
p9959
g132
tp9960
ag15
aa(lp9961
(Vthe
p9962
g3
tp9963
a(Veffort
p9964
g62
tp9965
a(Vwhich
p9966
g80
tp9967
a(Vwas
p9968
g621
tp9969
a(Vto
p9970
g147
tp9971
a(Vsatisfy
p9972
g132
tp9973
a(Vme
p9974
g138
tp9975
a(Vof
p9976
g18
tp9977
a(Vmy
p9978
g1167
tp9979
a(Vfate
p9980
g62
tp9981
a(Vand
p9982
g59
tp9983
a(Vyet
p9984
g100
tp9985
a(Vthere
p9986
g100
tp9987
a(Vwas
p9988
g621
tp9989
ag15
aa(lp9990
(Vsomething
p9991
g62
tp9992
a(Vat
p9993
g18
tp9994
a(Vmy
p9995
g1167
tp9996
a(Vheart
p9997
g62
tp9998
a(Vwhich
p9999
g80
tp10000
a(Vwhispered
p10001
g169
tp10002
a(Vme
p10003
g138
tp10004
a(V/it
p10005
g52
tp10006
a(Vwas
p10007
g621
tp10008
a(Vsure/
p10009
g52
tp10010
a(g10
g11
tp10011
a(VDespair
p10012
g6
tp10013
a(Vsuch
p10014
g52
tp10015
ag15
aa(lp10016
(Vas
p10017
g18
tp10018
a(Vno
p10019
g3
tp10020
a(Vother
p10021
g52
tp10022
a(Vspecies
p10023
g75
tp10024
a(Vof
p10025
g18
tp10026
a(Vwretchedness
p10027
g62
tp10028
a(Vever
p10029
g100
tp10030
a(Vcalls
p10031
g87
tp10032
a(Vinto
p10033
g18
tp10034
a(Vbeing
p10035
g1190
tp10036
a(Vdespair
p10037
g52
tp10038
ag15
aa(lp10039
(Valone
p10040
g100
tp10041
a(Vurged
p10042
g621
tp10043
a(Vme
p10044
g138
tp10045
a(g26
g27
tp10046
a(Vafter
p10047
g18
tp10048
a(Vlong
p10049
g100
tp10050
a(Virresolution
p10051
g62
tp10052
a(g26
g27
tp10053
a(Vto
p10054
g147
tp10055
a(Vuplift
p10056
g132
tp10057
a(Vthe
p10058
g3
tp10059
a(Vheavy
p10060
g52
tp10061
a(Vlids
p10062
g75
tp10063
a(Vof
p10064
g18
tp10065
a(Vmy
p10066
g1167
tp10067
ag15
aa(lp10068
(Veyes
p10069
g75
tp10070
a(g10
g11
tp10071
a(g381
g138
tp10072
a(Vuplifted
p10073
g621
tp10074
a(Vthem
p10075
g138
tp10076
a(g10
g11
tp10077
a(VIt
p10078
g138
tp10079
a(Vwas
p10080
g621
tp10081
a(Vdark
p10082
g52
tp10083
a(Vall
p10084
g3
tp10085
a(Vdark
p10086
g52
tp10087
a(g10
g11
tp10088
a(g381
g138
tp10089
a(Vknew
p10090
g621
tp10091
a(Vthat
p10092
g18
tp10093
a(Vthe
p10094
g3
tp10095
a(Vfit
p10096
g62
tp10097
a(Vwas
p10098
g621
tp10099
ag15
aa(lp10100
(Vover
p10101
g18
tp10102
a(g10
g11
tp10103
a(g381
g138
tp10104
a(Vknew
p10105
g621
tp10106
a(Vthat
p10107
g18
tp10108
a(Vthe
p10109
g3
tp10110
a(Vcrisis
p10111
g62
tp10112
a(Vof
p10113
g18
tp10114
a(Vmy
p10115
g1167
tp10116
a(Vdisorder
p10117
g62
tp10118
a(Vhad
p10119
g621
tp10120
a(Vlong
p10121
g52
tp10122
a(Vpassed
p10123
g169
tp10124
a(g10
g11
tp10125
a(g381
g138
tp10126
a(Vknew
p10127
g621
tp10128
a(Vthat
p10129
g18
tp10130
ag15
aa(lp10131
(g381
g138
tp10132
a(Vhad
p10133
g621
tp10134
a(Vnow
p10135
g100
tp10136
a(Vfully
p10137
g100
tp10138
a(Vrecovered
p10139
g169
tp10140
a(Vthe
p10141
g3
tp10142
a(Vuse
p10143
g62
tp10144
a(Vof
p10145
g18
tp10146
a(Vmy
p10147
g1167
tp10148
a(Vvisual
p10149
g52
tp10150
a(Vfaculties
p10151
g75
tp10152
a(Vand
p10153
g59
tp10154
a(Vyet
p10155
g100
tp10156
a(Vit
p10157
g138
tp10158
ag15
aa(lp10159
(Vwas
p10160
g621
tp10161
a(Vdark
p10162
g52
tp10163
a(Vall
p10164
g3
tp10165
a(Vdark
p10166
g52
tp10167
a(Vthe
p10168
g3
tp10169
a(Vintense
p10170
g62
tp10171
a(Vand
p10172
g59
tp10173
a(Vutter
p10174
g62
tp10175
a(Vraylessness
p10176
g62
tp10177
a(Vof
p10178
g18
tp10179
a(Vthe
p10180
g3
tp10181
a(VNight
p10182
g6
tp10183
ag15
aa(lp10184
(Vthat
p10185
g3
tp10186
a(Vendureth
p10187
g62
tp10188
a(Vfor
p10189
g18
tp10190
a(Vevermore
p10191
g62
tp10192
a(g10
g11
tp10193
ag15
aa(lp10194
(g381
g138
tp10195
a(Vendeavored
p10196
g621
tp10197
a(Vto
p10198
g147
tp10199
a(Vshriek
p10200
g132
tp10201
a(g411
g412
tp10202
a(Vand
p10203
g59
tp10204
a(Vmy
p10205
g1167
tp10206
a(Vlips
p10207
g75
tp10208
a(Vand
p10209
g59
tp10210
a(Vmy
p10211
g1167
tp10212
a(Vparched
p10213
g169
tp10214
a(Vtongue
p10215
g62
tp10216
a(Vmoved
p10217
g621
tp10218
ag15
aa(lp10219
(Vconvulsively
p10220
g100
tp10221
a(Vtogether
p10222
g100
tp10223
a(Vin
p10224
g18
tp10225
a(g1644
g1446
tp10226
a(g488
g412
tp10227
a(Vcolumn
p10228
g62
tp10229
a(g1649
g412
tp10230
a(g493
g412
tp10231
a(g1644
g1446
tp10232
a(Vthe
p10233
g3
tp10234
a(Vattempt
p10235
g62
tp10236
a(Vbut
p10237
g59
tp10238
a(Vno
p10239
g3
tp10240
a(Vvoice
p10241
g62
tp10242
a(Vissued
p10243
g621
tp10244
ag15
aa(lp10245
(Vfrom
p10246
g18
tp10247
a(Vthe
p10248
g3
tp10249
a(Vcavernous
p10250
g52
tp10251
a(Vlungs
p10252
g75
tp10253
a(g26
g27
tp10254
a(Vwhich
p10255
g80
tp10256
a(g26
g27
tp10257
a(Voppressed
p10258
g621
tp10259
a(Vas
p10260
g18
tp10261
a(Vif
p10262
g18
tp10263
a(Vby
p10264
g18
tp10265
a(Vthe
p10266
g3
tp10267
a(Vweight
p10268
g62
tp10269
a(Vof
p10270
g18
tp10271
a(Vsome
p10272
g3
tp10273
ag15
aa(lp10274
(Vincumbent
p10275
g62
tp10276
a(Vmountain
p10277
g62
tp10278
a(g26
g27
tp10279
a(Vgasped
p10280
g621
tp10281
a(Vand
p10282
g59
tp10283
a(Vpalpitated
p10284
g169
tp10285
a(g26
g27
tp10286
a(Vwith
p10287
g18
tp10288
a(Vthe
p10289
g3
tp10290
a(Vheart
p10291
g62
tp10292
a(g26
g27
tp10293
a(Vat
p10294
g18
tp10295
a(Vevery
p10296
g3
tp10297
ag15
aa(lp10298
(Velaborate
p10299
g62
tp10300
a(Vand
p10301
g59
tp10302
a(Vstruggling
p10303
g1190
tp10304
a(Vinspiration
p10305
g62
tp10306
a(g10
g11
tp10307
ag15
aa(lp10308
(VThe
p10309
g3
tp10310
a(Vmovement
p10311
g62
tp10312
a(Vof
p10313
g18
tp10314
a(Vthe
p10315
g3
tp10316
a(Vjaws
p10317
g75
tp10318
a(g26
g27
tp10319
a(Vin
p10320
g18
tp10321
a(Vthis
p10322
g3
tp10323
a(Veffort
p10324
g62
tp10325
a(Vto
p10326
g147
tp10327
a(Vcry
p10328
g132
tp10329
a(Valoud
p10330
g62
tp10331
a(g26
g27
tp10332
a(Vshowed
p10333
g621
tp10334
a(Vme
p10335
g138
tp10336
a(Vthat
p10337
g18
tp10338
ag15
aa(lp10339
(Vthey
p10340
g138
tp10341
a(Vwere
p10342
g621
tp10343
a(Vbound
p10344
g169
tp10345
a(Vup
p10346
g8011
tp10347
a(g26
g27
tp10348
a(Vas
p10349
g18
tp10350
a(Vis
p10351
g87
tp10352
a(Vusual
p10353
g52
tp10354
a(Vwith
p10355
g18
tp10356
a(Vthe
p10357
g3
tp10358
a(Vdead
p10359
g52
tp10360
a(g10
g11
tp10361
a(g381
g138
tp10362
a(Vfelt
p10363
g621
tp10364
a(g26
g27
tp10365
a(Vtoo
p10366
g100
tp10367
a(g26
g27
tp10368
a(Vthat
p10369
g18
tp10370
a(g381
g138
tp10371
a(Vlay
p10372
g70
tp10373
ag15
aa(lp10374
(Vupon
p10375
g18
tp10376
a(Vsome
p10377
g3
tp10378
a(Vhard
p10379
g52
tp10380
a(Vsubstance
p10381
g62
tp10382
a(g411
g412
tp10383
a(Vand
p10384
g59
tp10385
a(Vby
p10386
g18
tp10387
a(Vsomething
p10388
g62
tp10389
a(Vsimilar
p10390
g52
tp10391
a(Vmy
p10392
g1167
tp10393
a(Vsides
p10394
g75
tp10395
a(Vwere
p10396
g621
tp10397
a(g26
g27
tp10398
a(Valso,
p10399
g52
tp10400
ag15
aa(lp10401
(Vclosely
p10402
g100
tp10403
a(Vcompressed
p10404
g169
tp10405
a(g10
g11
tp10406
a(VSo
p10407
g18
tp10408
a(Vfar
p10409
g100
tp10410
a(g26
g27
tp10411
a(g381
g138
tp10412
a(Vhad
p10413
g621
tp10414
a(Vnot
p10415
g100
tp10416
a(Vventured
p10417
g169
tp10418
a(Vto
p10419
g147
tp10420
a(Vstir
p10421
g132
tp10422
a(Vany
p10423
g3
tp10424
a(Vof
p10425
g18
tp10426
a(Vmy
p10427
g1167
tp10428
a(Vlimbs
p10429
g75
tp10430
ag15
aa(lp10431
(Vbut
p10432
g59
tp10433
a(Vnow
p10434
g100
tp10435
a(g381
g138
tp10436
a(Vviolently
p10437
g100
tp10438
a(Vthrew
p10439
g621
tp10440
a(Vup
p10441
g8011
tp10442
a(Vmy
p10443
g1167
tp10444
a(Varms
p10445
g75
tp10446
a(g26
g27
tp10447
a(Vwhich
p10448
g80
tp10449
a(Vhad
p10450
g621
tp10451
a(Vbeen
p10452
g169
tp10453
a(Vlying
p10454
g1190
tp10455
a(Vat
p10456
g18
tp10457
a(Vlength,
p10458
g52
tp10459
ag15
aa(lp10460
(Vwith
p10461
g18
tp10462
a(Vthe
p10463
g3
tp10464
a(Vwrists
p10465
g75
tp10466
a(Vcrossed
p10467
g621
tp10468
a(g10
g11
tp10469
a(VThey
p10470
g138
tp10471
a(Vstruck
p10472
g70
tp10473
a(g623
g3
tp10474
a(Vsolid
p10475
g52
tp10476
a(Vwooden
p10477
g62
tp10478
a(Vsubstance
p10479
g62
tp10480
a(g26
g27
tp10481
a(Vwhich
p10482
g80
tp10483
ag15
aa(lp10484
(Vextended
p10485
g621
tp10486
a(Vabove
p10487
g18
tp10488
a(Vmy
p10489
g1167
tp10490
a(Vperson
p10491
g62
tp10492
a(Vat
p10493
g18
tp10494
a(Van
p10495
g3
tp10496
a(Velevation
p10497
g62
tp10498
a(Vof
p10499
g18
tp10500
a(Vnot
p10501
g100
tp10502
a(Vmore
p10503
g396
tp10504
a(Vthan
p10505
g18
tp10506
a(Vsix
p10507
g766
tp10508
a(Vinches
p10509
g75
tp10510
ag15
aa(lp10511
(Vfrom
p10512
g18
tp10513
a(Vmy
p10514
g1167
tp10515
a(Vface
p10516
g62
tp10517
a(g10
g11
tp10518
a(g381
g138
tp10519
a(Vcould
p10520
g129
tp10521
a(Vno
p10522
g100
tp10523
a(Vlonger
p10524
g396
tp10525
a(Vdoubt
p10526
g62
tp10527
a(Vthat
p10528
g18
tp10529
a(g381
g138
tp10530
a(Vreposed
p10531
g621
tp10532
a(Vwithin
p10533
g18
tp10534
a(g623
g3
tp10535
a(Vcoffin
p10536
g62
tp10537
a(Vat
p10538
g18
tp10539
ag15
aa(lp10540
(Vlast
p10541
g52
tp10542
a(g10
g11
tp10543
ag15
aa(lp10544
(VAnd
p10545
g59
tp10546
a(Vnow
p10547
g100
tp10548
a(g26
g27
tp10549
a(Vamid
p10550
g18
tp10551
a(Vall
p10552
g3
tp10553
a(Vmy
p10554
g1167
tp10555
a(Vinfinite
p10556
g62
tp10557
a(Vmiseries
p10558
g75
tp10559
a(g26
g27
tp10560
a(Vcame
p10561
g621
tp10562
a(Vsweetly
p10563
g100
tp10564
a(Vthe
p10565
g3
tp10566
a(Vcherub
p10567
g62
tp10568
a(VHope
p10569
g6
tp10570
ag15
aa(lp10571
(Vfor
p10572
g18
tp10573
a(g381
g138
tp10574
a(Vthought
p10575
g621
tp10576
a(Vof
p10577
g18
tp10578
a(Vmy
p10579
g1167
tp10580
a(Vprecautions
p10581
g75
tp10582
a(g10
g11
tp10583
a(g381
g138
tp10584
a(Vwrithed
p10585
g621
tp10586
a(g26
g27
tp10587
a(Vand
p10588
g59
tp10589
a(Vmade
p10590
g621
tp10591
a(Vspasmodic
p10592
g52
tp10593
a(Vexertions
p10594
g75
tp10595
ag15
aa(lp10596
(Vto
p10597
g147
tp10598
a(Vforce
p10599
g132
tp10600
a(Vopen
p10601
g52
tp10602
a(Vthe
p10603
g3
tp10604
a(Vlid
p10605
g62
tp10606
a(g1649
g412
tp10607
a(Vit
p10608
g138
tp10609
a(Vwould
p10610
g129
tp10611
a(Vnot
p10612
g100
tp10613
a(Vmove
p10614
g132
tp10615
a(g10
g11
tp10616
a(g381
g138
tp10617
a(Vfelt
p10618
g621
tp10619
a(Vmy
p10620
g1167
tp10621
a(Vwrists
p10622
g75
tp10623
a(Vfor
p10624
g18
tp10625
a(Vthe
p10626
g3
tp10627
ag15
aa(lp10628
(Vbell-rope
p10629
g62
tp10630
a(g1649
g412
tp10631
a(Vit
p10632
g138
tp10633
a(Vwas
p10634
g621
tp10635
a(Vnot
p10636
g100
tp10637
a(Vto
p10638
g147
tp10639
a(Vbe
p10640
g132
tp10641
a(Vfound
p10642
g169
tp10643
a(g10
g11
tp10644
a(VAnd
p10645
g59
tp10646
a(Vnow
p10647
g100
tp10648
a(Vthe
p10649
g3
tp10650
a(VComforter
p10651
g6
tp10652
a(Vfled
p10653
g621
tp10654
a(Vforever,
p10655
g6
tp10656
ag15
aa(lp10657
(Vand
p10658
g59
tp10659
a(g623
g3
tp10660
a(Vstill
p10661
g100
tp10662
a(Vsterner
p10663
g62
tp10664
a(VDespair
p10665
g6
tp10666
a(Vreigned
p10667
g621
tp10668
a(Vtriumphant
p10669
g52
tp10670
a(g411
g412
tp10671
a(Vfor
p10672
g18
tp10673
a(g381
g138
tp10674
a(Vcould
p10675
g129
tp10676
a(Vnot
p10677
g100
tp10678
a(Vhelp
p10679
g132
tp10680
ag15
aa(lp10681
(Vperceiving
p10682
g1190
tp10683
a(Vthe
p10684
g3
tp10685
a(Vabsence
p10686
g62
tp10687
a(Vof
p10688
g18
tp10689
a(Vthe
p10690
g3
tp10691
a(Vpaddings
p10692
g75
tp10693
a(Vwhich
p10694
g80
tp10695
a(g381
g138
tp10696
a(Vhad
p10697
g621
tp10698
a(Vso
p10699
g100
tp10700
a(Vcarefully
p10701
g100
tp10702
a(Vprepared
p10703
g169
tp10704
ag15
aa(lp10705
(Vand
p10706
g59
tp10707
a(Vthen
p10708
g100
tp10709
a(g26
g27
tp10710
a(Vtoo
p10711
g100
tp10712
a(g26
g27
tp10713
a(Vthere
p10714
g67
tp10715
a(Vcame
p10716
g621
tp10717
a(Vsuddenly
p10718
g100
tp10719
a(Vto
p10720
g147
tp10721
a(Vmy
p10722
g1167
tp10723
a(Vnostrils
p10724
g75
tp10725
a(Vthe
p10726
g3
tp10727
a(Vstrong
p10728
g52
tp10729
a(Vpeculiar
p10730
g62
tp10731
ag15
aa(lp10732
(Vodor
p10733
g62
tp10734
a(Vof
p10735
g18
tp10736
a(Vmoist
p10737
g62
tp10738
a(Vearth
p10739
g62
tp10740
a(g10
g11
tp10741
a(VThe
p10742
g3
tp10743
a(Vconclusion
p10744
g62
tp10745
a(Vwas
p10746
g621
tp10747
a(Virresistible
p10748
g52
tp10749
a(g10
g11
tp10750
a(g381
g138
tp10751
a(Vwas
p10752
g621
tp10753
a(V/not/
p10754
g52
tp10755
a(Vwithin
p10756
g18
tp10757
ag15
aa(lp10758
(Vthe
p10759
g3
tp10760
a(Vvault
p10761
g62
tp10762
a(g10
g11
tp10763
a(g381
g138
tp10764
a(Vhad
p10765
g621
tp10766
a(Vfallen
p10767
g169
tp10768
a(Vinto
p10769
g18
tp10770
a(g623
g3
tp10771
a(Vtrance
p10772
g62
tp10773
a(Vwhile
p10774
g18
tp10775
a(Vabsent
p10776
g62
tp10777
a(Vfrom
p10778
g18
tp10779
a(Vhome
p10780
g62
tp10781
a(Vwhile
p10782
g18
tp10783
ag15
aa(lp10784
(Vamong
p10785
g18
tp10786
a(Vstrangers
p10787
g75
tp10788
a(Vwhen
p10789
g175
tp10790
a(g26
g27
tp10791
a(Vor
p10792
g59
tp10793
a(Vhow
p10794
g175
tp10795
a(g26
g27
tp10796
a(g381
g138
tp10797
a(Vcould
p10798
g129
tp10799
a(Vnot
p10800
g100
tp10801
a(Vremember
p10802
g132
tp10803
a(Vand
p10804
g59
tp10805
a(Vit
p10806
g138
tp10807
a(Vwas
p10808
g621
tp10809
a(Vthey
p10810
g138
tp10811
ag15
aa(lp10812
(Vwho
p10813
g720
tp10814
a(Vhad
p10815
g621
tp10816
a(Vburied
p10817
g169
tp10818
a(Vme
p10819
g138
tp10820
a(Vas
p10821
g18
tp10822
a(g623
g3
tp10823
a(Vdog
p10824
g62
tp10825
a(Vnailed
p10826
g169
tp10827
a(Vup
p10828
g8011
tp10829
a(Vin
p10830
g18
tp10831
a(Vsome
p10832
g3
tp10833
a(Vcommon
p10834
g52
tp10835
a(Vcoffin
p10836
g62
tp10837
a(Vand
p10838
g59
tp10839
ag15
aa(lp10840
(Vthrust
p10841
g100
tp10842
a(g26
g27
tp10843
a(Vdeep
p10844
g132
tp10845
a(g26
g27
tp10846
a(Vdeep
p10847
g132
tp10848
a(g26
g27
tp10849
a(Vand
p10850
g59
tp10851
a(Vforever
p10852
g100
tp10853
a(g26
g27
tp10854
a(Vinto
p10855
g18
tp10856
a(Vsome
p10857
g3
tp10858
a(Vordinary
p10859
g52
tp10860
a(Vand
p10861
g59
tp10862
a(Vnameless
p10863
g62
tp10864
a(V/grave/
p10865
g62
tp10866
a(g10
g11
tp10867
ag15
aa(lp10868
(VAs
p10869
g18
tp10870
a(Vthis
p10871
g3
tp10872
a(Vawful
p10873
g52
tp10874
a(Vconviction
p10875
g62
tp10876
a(Vforced
p10877
g621
tp10878
a(Vitself
p10879
g138
tp10880
a(g26
g27
tp10881
a(Vthus
p10882
g100
tp10883
a(g26
g27
tp10884
a(Vinto
p10885
g18
tp10886
a(Vthe
p10887
g3
tp10888
a(Vinnermost
p10889
g746
tp10890
ag15
aa(lp10891
(Vchambers
p10892
g75
tp10893
a(Vof
p10894
g18
tp10895
a(Vmy
p10896
g1167
tp10897
a(Vsoul
p10898
g62
tp10899
a(g26
g27
tp10900
a(g381
g138
tp10901
a(Vonce
p10902
g100
tp10903
a(Vagain
p10904
g100
tp10905
a(Vstruggled
p10906
g169
tp10907
a(Vto
p10908
g147
tp10909
a(Vcry
p10910
g132
tp10911
a(Valoud
p10912
g62
tp10913
a(g10
g11
tp10914
a(VAnd
p10915
g59
tp10916
a(Vin
p10917
g18
tp10918
a(Vthis
p10919
g3
tp10920
ag15
aa(lp10921
(Vsecond
p10922
g52
tp10923
a(Vendeavor
p10924
g62
tp10925
a(g381
g138
tp10926
a(Vsucceeded
p10927
g621
tp10928
a(g10
g11
tp10929
a(g869
g3
tp10930
a(Vlong
p10931
g52
tp10932
a(g26
g27
tp10933
a(Vwild
p10934
g52
tp10935
a(g26
g27
tp10936
a(Vand
p10937
g59
tp10938
a(Vcontinuous
p10939
g52
tp10940
a(Vshriek
p10941
g62
tp10942
a(g26
g27
tp10943
a(Vor
p10944
g59
tp10945
ag15
aa(lp10946
(Vyell
p10947
g62
tp10948
a(g26
g27
tp10949
a(Vof
p10950
g18
tp10951
a(Vagony
p10952
g62
tp10953
a(g26
g27
tp10954
a(Vresounded
p10955
g621
tp10956
a(Vthrough
p10957
g18
tp10958
a(Vthe
p10959
g3
tp10960
a(Vrealms
p10961
g75
tp10962
a(Vof
p10963
g18
tp10964
a(Vthe
p10965
g3
tp10966
a(Vsubterrene
p10967
g62
tp10968
a(VNight
p10969
g6
tp10970
a(g10
g11
tp10971
ag15
aa(lp10972
(V``
p10973
g46
tp10974
a(VHillo
p10975
g6
tp10976
a(g630
g11
tp10977
a(Vhillo
p10978
g62
tp10979
a(g26
g27
tp10980
a(Vthere
p10981
g67
tp10982
a(g630
g11
tp10983
a(V''
p10984
g56
tp10985
a(Vsaid
p10986
g621
tp10987
a(g623
g3
tp10988
a(Vgruff
p10989
g62
tp10990
a(Vvoice
p10991
g62
tp10992
a(Vin
p10993
g18
tp10994
a(Vreply
p10995
g62
tp10996
a(g10
g11
tp10997
ag15
aa(lp10998
(V``
p10999
g46
tp11000
a(VWhat
p11001
g720
tp11002
a(Vthe
p11003
g3
tp11004
a(Vdevil
p11005
g62
tp11006
a(V's
p11007
g2702
tp11008
a(Vthe
p11009
g3
tp11010
a(Vmatter
p11011
g62
tp11012
a(Vnow
p11013
g100
tp11014
a(g782
g11
tp11015
a(V''
p11016
g56
tp11017
a(Vsaid
p11018
g621
tp11019
a(g623
g3
tp11020
a(Vsecond
p11021
g52
tp11022
a(g10
g11
tp11023
ag15
aa(lp11024
(V``
p11025
g46
tp11026
a(VGet
p11027
g62
tp11028
a(Vout
p11029
g18
tp11030
a(Vo
p11031
g62
tp11032
a(V'
p11033
g56
tp11034
a(Vthat
p11035
g18
tp11036
a(g630
g11
tp11037
a(V''
p11038
g56
tp11039
a(Vsaid
p11040
g621
tp11041
a(g623
g3
tp11042
a(Vthird
p11043
g52
tp11044
a(g10
g11
tp11045
ag15
aa(lp11046
(V``
p11047
g46
tp11048
a(VWhat
p11049
g720
tp11050
a(Vdo
p11051
g70
tp11052
a(Vyou
p11053
g138
tp11054
a(Vmean
p11055
g132
tp11056
a(Vby
p11057
g18
tp11058
a(Vyawling
p11059
g62
tp11060
a(Vin
p11061
g18
tp11062
a(Vthat
p11063
g3
tp11064
a(Vere
p11065
g62
tp11066
a(Vkind
p11067
g62
tp11068
a(Vof
p11069
g18
tp11070
a(Vstyle
p11071
g62
tp11072
a(g26
g27
tp11073
a(Vlike
p11074
g18
tp11075
a(g623
g3
tp11076
ag15
aa(lp11077
(Vcattymount
p11078
g62
tp11079
a(g782
g11
tp11080
a(V''
p11081
g56
tp11082
a(Vsaid
p11083
g621
tp11084
a(g623
g3
tp11085
a(Vfourth
p11086
g52
tp11087
a(g411
g412
tp11088
a(Vand
p11089
g59
tp11090
a(Vhereupon
p11091
g62
tp11092
a(g381
g138
tp11093
a(Vwas
p11094
g621
tp11095
a(Vseized
p11096
g169
tp11097
a(Vand
p11098
g59
tp11099
a(Vshaken
p11100
g169
tp11101
a(Vwithout
p11102
g18
tp11103
ag15
aa(lp11104
(Vceremony
p11105
g62
tp11106
a(g26
g27
tp11107
a(Vfor
p11108
g18
tp11109
a(Vseveral
p11110
g52
tp11111
a(Vminutes
p11112
g75
tp11113
a(g26
g27
tp11114
a(Vby
p11115
g18
tp11116
a(g623
g3
tp11117
a(Vjunto
p11118
g62
tp11119
a(Vof
p11120
g18
tp11121
a(Vvery
p11122
g100
tp11123
a(Vrough-looking
p11124
g52
tp11125
ag15
aa(lp11126
(Vindividuals
p11127
g75
tp11128
a(g10
g11
tp11129
a(VThey
p11130
g138
tp11131
a(Vdid
p11132
g621
tp11133
a(Vnot
p11134
g100
tp11135
a(Varouse
p11136
g132
tp11137
a(Vme
p11138
g138
tp11139
a(Vfrom
p11140
g18
tp11141
a(Vmy
p11142
g1167
tp11143
a(Vslumber
p11144
g62
tp11145
a(Vfor
p11146
g18
tp11147
a(g381
g138
tp11148
a(Vwas
p11149
g621
tp11150
a(Vwide
p11151
g52
tp11152
ag15
aa(lp11153
(Vawake
p11154
g62
tp11155
a(Vwhen
p11156
g175
tp11157
a(g381
g138
tp11158
a(Vscreamed
p11159
g621
tp11160
a(Vbut
p11161
g59
tp11162
a(Vthey
p11163
g138
tp11164
a(Vrestored
p11165
g621
tp11166
a(Vme
p11167
g138
tp11168
a(Vto
p11169
g147
tp11170
a(Vthe
p11171
g3
tp11172
a(Vfull
p11173
g52
tp11174
a(Vpossession
p11175
g62
tp11176
a(Vof
p11177
g18
tp11178
ag15
aa(lp11179
(Vmy
p11180
g1167
tp11181
a(Vmemory
p11182
g62
tp11183
a(g10
g11
tp11184
ag15
aa(lp11185
(VThis
p11186
g3
tp11187
a(Vadventure
p11188
g62
tp11189
a(Voccurred
p11190
g621
tp11191
a(Vnear
p11192
g18
tp11193
a(VRichmond
p11194
g6
tp11195
a(g26
g27
tp11196
a(Vin
p11197
g18
tp11198
a(VVirginia
p11199
g6
tp11200
a(g10
g11
tp11201
a(VAccompanied
p11202
g6
tp11203
a(Vby
p11204
g18
tp11205
a(g623
g3
tp11206
ag15
aa(lp11207
(Vfriend
p11208
g62
tp11209
a(g26
g27
tp11210
a(g381
g138
tp11211
a(Vhad
p11212
g621
tp11213
a(Vproceeded
p11214
g169
tp11215
a(g26
g27
tp11216
a(Vupon
p11217
g18
tp11218
a(g623
g3
tp11219
a(Vgunning
p11220
g62
tp11221
a(Vexpedition
p11222
g62
tp11223
a(g26
g27
tp11224
a(Vsome
p11225
g3
tp11226
a(Vmiles
p11227
g75
tp11228
a(Vdown
p11229
g8011
tp11230
a(Vthe
p11231
g3
tp11232
ag15
aa(lp11233
(Vbanks
p11234
g75
tp11235
a(Vof
p11236
g18
tp11237
a(Vthe
p11238
g3
tp11239
a(VJames
p11240
g6
tp11241
a(VRiver
p11242
g6
tp11243
a(g10
g11
tp11244
a(VNight
p11245
g62
tp11246
a(Vapproached
p11247
g621
tp11248
a(g26
g27
tp11249
a(Vand
p11250
g59
tp11251
a(Vwe
p11252
g138
tp11253
a(Vwere
p11254
g621
tp11255
a(Vovertaken
p11256
g169
tp11257
a(Vby
p11258
g18
tp11259
a(g623
g3
tp11260
ag15
aa(lp11261
(Vstorm
p11262
g62
tp11263
a(g10
g11
tp11264
a(VThe
p11265
g3
tp11266
a(Vcabin
p11267
g62
tp11268
a(Vof
p11269
g18
tp11270
a(g623
g3
tp11271
a(Vsmall
p11272
g52
tp11273
a(Vsloop
p11274
g62
tp11275
a(Vlying
p11276
g1190
tp11277
a(Vat
p11278
g18
tp11279
a(Vanchor
p11280
g62
tp11281
a(Vin
p11282
g18
tp11283
a(Vthe
p11284
g3
tp11285
a(Vstream
p11286
g62
tp11287
a(g26
g27
tp11288
a(Vand
p11289
g59
tp11290
ag15
aa(lp11291
(Vladen
p11292
g62
tp11293
a(Vwith
p11294
g18
tp11295
a(Vgarden
p11296
g52
tp11297
a(Vmould
p11298
g62
tp11299
a(g26
g27
tp11300
a(Vafforded
p11301
g621
tp11302
a(Vus
p11303
g138
tp11304
a(Vthe
p11305
g3
tp11306
a(Vonly
p11307
g52
tp11308
a(Vavailable
p11309
g52
tp11310
a(Vshelter
p11311
g62
tp11312
a(g10
g11
tp11313
a(VWe
p11314
g138
tp11315
a(Vmade
p11316
g621
tp11317
ag15
aa(lp11318
(Vthe
p11319
g3
tp11320
a(Vbest
p11321
g746
tp11322
a(Vof
p11323
g18
tp11324
a(Vit
p11325
g138
tp11326
a(g26
g27
tp11327
a(Vand
p11328
g59
tp11329
a(Vpassed
p11330
g621
tp11331
a(Vthe
p11332
g3
tp11333
a(Vnight
p11334
g62
tp11335
a(Von
p11336
g18
tp11337
a(Vboard
p11338
g62
tp11339
a(g10
g11
tp11340
a(g381
g138
tp11341
a(Vslept
p11342
g621
tp11343
a(Vin
p11344
g18
tp11345
a(Vone
p11346
g766
tp11347
a(Vof
p11348
g18
tp11349
a(Vthe
p11350
g3
tp11351
ag15
aa(lp11352
(Vonly
p11353
g100
tp11354
a(Vtwo
p11355
g766
tp11356
a(Vberths
p11357
g75
tp11358
a(Vin
p11359
g18
tp11360
a(Vthe
p11361
g3
tp11362
a(Vvessel
p11363
g62
tp11364
a(Vand
p11365
g59
tp11366
a(Vthe
p11367
g3
tp11368
a(Vberths
p11369
g75
tp11370
a(Vof
p11371
g18
tp11372
a(g623
g3
tp11373
a(Vsloop
p11374
g62
tp11375
a(Vof
p11376
g18
tp11377
a(Vsixty
p11378
g62
tp11379
a(Vor
p11380
g59
tp11381
ag15
aa(lp11382
(Vseventy
p11383
g62
tp11384
a(Vtons
p11385
g75
tp11386
a(g26
g27
tp11387
a(Vneed
p11388
g70
tp11389
a(Vscarcely
p11390
g100
tp11391
a(Vbe
p11392
g132
tp11393
a(Vdescribed
p11394
g169
tp11395
a(g10
g11
tp11396
a(VThat
p11397
g3
tp11398
a(Vwhich
p11399
g62
tp11400
a(g381
g138
tp11401
a(Voccupied
p11402
g621
tp11403
a(Vhad
p11404
g621
tp11405
a(Vno
p11406
g3
tp11407
ag15
aa(lp11408
(Vbedding
p11409
g1190
tp11410
a(Vof
p11411
g18
tp11412
a(Vany
p11413
g3
tp11414
a(Vkind
p11415
g62
tp11416
a(g10
g11
tp11417
a(VIts
p11418
g1167
tp11419
a(Vextreme
p11420
g62
tp11421
a(Vwidth
p11422
g62
tp11423
a(Vwas
p11424
g621
tp11425
a(Veighteen
p11426
g169
tp11427
a(Vinches
p11428
g75
tp11429
a(g10
g11
tp11430
a(VThe
p11431
g3
tp11432
a(Vdistance
p11433
g62
tp11434
ag15
aa(lp11435
(Vof
p11436
g18
tp11437
a(Vits
p11438
g1167
tp11439
a(Vbottom
p11440
g52
tp11441
a(Vfrom
p11442
g18
tp11443
a(Vthe
p11444
g3
tp11445
a(Vdeck
p11446
g62
tp11447
a(Voverhead
p11448
g62
tp11449
a(g26
g27
tp11450
a(Vwas
p11451
g621
tp11452
a(Vprecisely
p11453
g100
tp11454
a(Vthe
p11455
g3
tp11456
a(Vsame
p11457
g52
tp11458
a(g10
g11
tp11459
a(g381
g138
tp11460
a(Vfound
p11461
g621
tp11462
a(Vit
p11463
g138
tp11464
ag15
aa(lp11465
(g623
g3
tp11466
a(Vmatter
p11467
g62
tp11468
a(Vof
p11469
g18
tp11470
a(Vexceeding
p11471
g1190
tp11472
a(Vdifficulty
p11473
g62
tp11474
a(Vto
p11475
g147
tp11476
a(Vsqueeze
p11477
g132
tp11478
a(Vmyself
p11479
g138
tp11480
a(Vin
p11481
g18
tp11482
a(g10
g11
tp11483
a(VNevertheless
p11484
g100
tp11485
a(g26
g27
tp11486
a(g381
g138
tp11487
ag15
aa(lp11488
(Vslept
p11489
g18
tp11490
a(Vsoundly
p11491
g100
tp11492
a(g411
g412
tp11493
a(Vand
p11494
g59
tp11495
a(Vthe
p11496
g3
tp11497
a(Vwhole
p11498
g52
tp11499
a(Vof
p11500
g18
tp11501
a(Vmy
p11502
g1167
tp11503
a(Vvision
p11504
g62
tp11505
a(Vfor
p11506
g18
tp11507
a(Vit
p11508
g138
tp11509
a(Vwas
p11510
g621
tp11511
a(Vno
p11512
g3
tp11513
a(Vdream
p11514
g62
tp11515
a(g26
g27
tp11516
a(Vand
p11517
g59
tp11518
a(Vno
p11519
g3
tp11520
ag15
aa(lp11521
(Vnightmare
p11522
g62
tp11523
a(Varose
p11524
g621
tp11525
a(Vnaturally
p11526
g100
tp11527
a(Vfrom
p11528
g18
tp11529
a(Vthe
p11530
g3
tp11531
a(Vcircumstances
p11532
g75
tp11533
a(Vof
p11534
g18
tp11535
a(Vmy
p11536
g1167
tp11537
a(Vposition
p11538
g62
tp11539
a(Vfrom
p11540
g18
tp11541
ag15
aa(lp11542
(Vmy
p11543
g1167
tp11544
a(Vordinary
p11545
g62
tp11546
a(Vbias
p11547
g62
tp11548
a(Vof
p11549
g18
tp11550
a(Vthought
p11551
g62
tp11552
a(Vand
p11553
g59
tp11554
a(Vfrom
p11555
g18
tp11556
a(Vthe
p11557
g3
tp11558
a(Vdifficulty
p11559
g62
tp11560
a(g26
g27
tp11561
a(Vto
p11562
g147
tp11563
a(Vwhich
p11564
g80
tp11565
a(g381
g138
tp11566
a(Vhave
p11567
g70
tp11568
ag15
aa(lp11569
(Valluded
p11570
g621
tp11571
a(g26
g27
tp11572
a(Vof
p11573
g18
tp11574
a(Vcollecting
p11575
g62
tp11576
a(Vmy
p11577
g1167
tp11578
a(Vsenses
p11579
g75
tp11580
a(g26
g27
tp11581
a(Vand
p11582
g59
tp11583
a(Vespecially
p11584
g100
tp11585
a(Vof
p11586
g18
tp11587
a(Vregaining
p11588
g1190
tp11589
a(Vmy
p11590
g1167
tp11591
a(Vmemory,
p11592
g62
tp11593
ag15
aa(lp11594
(Vfor
p11595
g18
tp11596
a(g623
g3
tp11597
a(Vlong
p11598
g52
tp11599
a(Vtime
p11600
g62
tp11601
a(Vafter
p11602
g18
tp11603
a(Vawaking
p11604
g1190
tp11605
a(Vfrom
p11606
g18
tp11607
a(Vslumber
p11608
g62
tp11609
a(g10
g11
tp11610
a(VThe
p11611
g3
tp11612
a(Vmen
p11613
g75
tp11614
a(Vwho
p11615
g720
tp11616
a(Vshook
p11617
g62
tp11618
a(Vme
p11619
g138
tp11620
a(Vwere
p11621
g621
tp11622
ag15
aa(lp11623
(Vthe
p11624
g3
tp11625
a(Vcrew
p11626
g62
tp11627
a(Vof
p11628
g18
tp11629
a(Vthe
p11630
g3
tp11631
a(Vsloop
p11632
g62
tp11633
a(g26
g27
tp11634
a(Vand
p11635
g59
tp11636
a(Vsome
p11637
g3
tp11638
a(Vlaborers
p11639
g75
tp11640
a(Vengaged
p11641
g621
tp11642
a(Vto
p11643
g147
tp11644
a(Vunload
p11645
g132
tp11646
a(Vit
p11647
g138
tp11648
a(g10
g11
tp11649
a(VFrom
p11650
g18
tp11651
a(Vthe
p11652
g3
tp11653
ag15
aa(lp11654
(Vload
p11655
g62
tp11656
a(Vitself
p11657
g138
tp11658
a(Vcame
p11659
g621
tp11660
a(Vthe
p11661
g3
tp11662
a(Vearthly
p11663
g100
tp11664
a(Vsmell
p11665
g70
tp11666
a(g10
g11
tp11667
a(VThe
p11668
g3
tp11669
a(Vbandage
p11670
g62
tp11671
a(Vabout
p11672
g18
tp11673
a(Vthe
p11674
g3
tp11675
a(Vjaws
p11676
g75
tp11677
a(Vwas
p11678
g621
tp11679
a(g623
g3
tp11680
ag15
aa(lp11681
(Vsilk
p11682
g62
tp11683
a(Vhandkerchief
p11684
g62
tp11685
a(Vin
p11686
g18
tp11687
a(Vwhich
p11688
g80
tp11689
a(g381
g138
tp11690
a(Vhad
p11691
g621
tp11692
a(Vbound
p11693
g169
tp11694
a(Vup
p11695
g8011
tp11696
a(Vmy
p11697
g1167
tp11698
a(Vhead
p11699
g62
tp11700
a(g26
g27
tp11701
a(Vin
p11702
g18
tp11703
a(Vdefault
p11704
g62
tp11705
a(Vof
p11706
g18
tp11707
a(Vmy
p11708
g1167
tp11709
ag15
aa(lp11710
(Vcustomary
p11711
g52
tp11712
a(Vnightcap
p11713
g62
tp11714
a(g10
g11
tp11715
ag15
aa(lp11716
(VThe
p11717
g3
tp11718
a(Vtortures
p11719
g75
tp11720
a(Vendured
p11721
g621
tp11722
a(g26
g27
tp11723
a(Vhowever
p11724
g100
tp11725
a(g26
g27
tp11726
a(Vwere
p11727
g621
tp11728
a(Vindubitably
p11729
g100
tp11730
a(Vquite
p11731
g100
tp11732
a(Vequal
p11733
g52
tp11734
a(g26
g27
tp11735
a(Vfor
p11736
g18
tp11737
a(Vthe
p11738
g3
tp11739
ag15
aa(lp11740
(Vtime
p11741
g62
tp11742
a(g26
g27
tp11743
a(Vto
p11744
g147
tp11745
a(Vthose
p11746
g3
tp11747
a(Vof
p11748
g18
tp11749
a(Vactual
p11750
g52
tp11751
a(Vsepulture
p11752
g62
tp11753
a(g10
g11
tp11754
a(VThey
p11755
g138
tp11756
a(Vwere
p11757
g621
tp11758
a(Vfearfully
p11759
g100
tp11760
a(Vthey
p11761
g138
tp11762
a(Vwere
p11763
g621
tp11764
ag15
aa(lp11765
(Vinconceivably
p11766
g100
tp11767
a(Vhideous
p11768
g52
tp11769
a(g411
g412
tp11770
a(Vbut
p11771
g59
tp11772
a(Vout
p11773
g18
tp11774
a(Vof
p11775
g18
tp11776
a(VEvil
p11777
g6
tp11778
a(Vproceeded
p11779
g621
tp11780
a(VGood
p11781
g6
tp11782
a(g411
g412
tp11783
a(Vfor
p11784
g18
tp11785
a(Vtheir
p11786
g1167
tp11787
a(Vvery
p11788
g52
tp11789
ag15
aa(lp11790
(Vexcess
p11791
g62
tp11792
a(Vwrought
p11793
g621
tp11794
a(Vin
p11795
g18
tp11796
a(Vmy
p11797
g1167
tp11798
a(Vspirit
p11799
g62
tp11800
a(Van
p11801
g3
tp11802
a(Vinevitable
p11803
g52
tp11804
a(Vrevulsion
p11805
g62
tp11806
a(g10
g11
tp11807
a(VMy
p11808
g1167
tp11809
a(Vsoul
p11810
g62
tp11811
a(Vacquired
p11812
g169
tp11813
ag15
aa(lp11814
(Vtone
p11815
g62
tp11816
a(Vacquired
p11817
g621
tp11818
a(Vtemper
p11819
g62
tp11820
a(g10
g11
tp11821
a(g381
g138
tp11822
a(Vwent
p11823
g621
tp11824
a(Vabroad
p11825
g100
tp11826
a(g10
g11
tp11827
a(g381
g138
tp11828
a(Vtook
p11829
g621
tp11830
a(Vvigorous
p11831
g52
tp11832
a(Vexercise
p11833
g62
tp11834
a(g10
g11
tp11835
a(g381
g138
tp11836
ag15
aa(lp11837
(Vbreathed
p11838
g621
tp11839
a(Vthe
p11840
g3
tp11841
a(Vfree
p11842
g52
tp11843
a(Vair
p11844
g62
tp11845
a(Vof
p11846
g18
tp11847
a(VHeaven
p11848
g6
tp11849
a(g10
g11
tp11850
a(g381
g138
tp11851
a(Vthought
p11852
g621
tp11853
a(Vupon
p11854
g18
tp11855
a(Vother
p11856
g52
tp11857
a(Vsubjects
p11858
g75
tp11859
a(Vthan
p11860
g18
tp11861
ag15
aa(lp11862
(VDeath
p11863
g62
tp11864
a(g10
g11
tp11865
a(g381
g138
tp11866
a(Vdiscarded
p11867
g621
tp11868
a(Vmy
p11869
g1167
tp11870
a(Vmedical
p11871
g52
tp11872
a(Vbooks
p11873
g75
tp11874
a(g10
g11
tp11875
a(V``
p11876
g46
tp11877
a(VBuchan
p11878
g18
tp11879
a(V''
p11880
g56
tp11881
a(g381
g138
tp11882
a(Vburned
p11883
g621
tp11884
a(g10
g11
tp11885
a(g381
g138
tp11886
a(Vread
p11887
g70
tp11888
a(Vno
p11889
g3
tp11890
a(V``
p11891
g46
tp11892
a(VNight
p11893
g6
tp11894
ag15
aa(lp11895
(VThoughts
p11896
g75
tp11897
a(V''
p11898
g56
tp11899
a(Vno
p11900
g3
tp11901
a(Vfustian
p11902
g62
tp11903
a(Vabout
p11904
g18
tp11905
a(Vchurch-yards
p11906
g75
tp11907
a(Vno
p11908
g3
tp11909
a(Vbugaboo
p11910
g62
tp11911
a(Vtales
p11912
g75
tp11913
a(V/such
p11914
g52
tp11915
a(Vas
p11916
g18
tp11917
ag15
aa(lp11918
(Vthis/
p11919
g62
tp11920
a(g10
g11
tp11921
a(VIn
p11922
g18
tp11923
a(Vshort
p11924
g52
tp11925
a(g381
g138
tp11926
a(Vbecame
p11927
g621
tp11928
a(g623
g3
tp11929
a(Vnew
p11930
g52
tp11931
a(Vman
p11932
g62
tp11933
a(g26
g27
tp11934
a(Vand
p11935
g59
tp11936
a(Vlived
p11937
g621
tp11938
a(g623
g3
tp11939
a(Vman
p11940
g62
tp11941
a(V's
p11942
g2702
tp11943
a(Vlife
p11944
g62
tp11945
a(g10
g11
tp11946
a(VFrom
p11947
g18
tp11948
a(Vthat
p11949
g3
tp11950
ag15
aa(lp11951
(Vmemorable
p11952
g52
tp11953
a(Vnight
p11954
g62
tp11955
a(g26
g27
tp11956
a(g381
g138
tp11957
a(Vdismissed
p11958
g621
tp11959
a(Vforever
p11960
g100
tp11961
a(Vmy
p11962
g1167
tp11963
a(Vcharnel
p11964
g62
tp11965
a(Vapprehensions
p11966
g75
tp11967
a(g26
g27
tp11968
a(Vand
p11969
g59
tp11970
a(Vwith
p11971
g18
tp11972
ag15
aa(lp11973
(Vthem
p11974
g138
tp11975
a(Vvanished
p11976
g621
tp11977
a(Vthe
p11978
g3
tp11979
a(Vcataleptic
p11980
g52
tp11981
a(Vdisorder
p11982
g62
tp11983
a(g26
g27
tp11984
a(Vof
p11985
g18
tp11986
a(Vwhich
p11987
g80
tp11988
a(g26
g27
tp11989
a(Vperhaps
p11990
g100
tp11991
a(g26
g27
tp11992
a(Vthey
p11993
g138
tp11994
a(Vhad
p11995
g621
tp11996
a(Vbeen
p11997
g169
tp11998
ag15
aa(lp11999
(Vless
p12000
g434
tp12001
a(Vthe
p12002
g3
tp12003
a(Vconsequence
p12004
g62
tp12005
a(Vthan
p12006
g18
tp12007
a(Vthe
p12008
g3
tp12009
a(Vcause
p12010
g62
tp12011
a(g10
g11
tp12012
ag15
aa(lp12013
(VThere
p12014
g67
tp12015
a(Vare
p12016
g70
tp12017
a(Vmoments
p12018
g75
tp12019
a(Vwhen
p12020
g175
tp12021
a(g26
g27
tp12022
a(Veven
p12023
g100
tp12024
a(Vto
p12025
g147
tp12026
a(Vthe
p12027
g3
tp12028
a(Vsober
p12029
g62
tp12030
a(Veye
p12031
g62
tp12032
a(Vof
p12033
g18
tp12034
a(VReason
p12035
g6
tp12036
a(g26
g27
tp12037
a(Vthe
p12038
g3
tp12039
a(Vworld
p12040
g62
tp12041
a(Vof
p12042
g18
tp12043
ag15
aa(lp12044
(Vour
p12045
g1167
tp12046
a(Vsad
p12047
g52
tp12048
a(VHumanity
p12049
g6
tp12050
a(Vmay
p12051
g129
tp12052
a(Vassume
p12053
g132
tp12054
a(Vthe
p12055
g3
tp12056
a(Vsemblance
p12057
g62
tp12058
a(Vof
p12059
g18
tp12060
a(g623
g3
tp12061
a(VHell
p12062
g6
tp12063
a(Vbut
p12064
g59
tp12065
a(Vthe
p12066
g3
tp12067
a(Vintellect
p12068
g62
tp12069
ag15
aa(lp12070
(Vof
p12071
g18
tp12072
a(Vman
p12073
g62
tp12074
a(Vis
p12075
g87
tp12076
a(Vno
p12077
g3
tp12078
a(VCarathis
p12079
g6
tp12080
a(g26
g27
tp12081
a(Vto
p12082
g147
tp12083
a(Vexplore
p12084
g132
tp12085
a(Vwith
p12086
g18
tp12087
a(Vimpunity
p12088
g62
tp12089
a(Vits
p12090
g1167
tp12091
a(Vevery
p12092
g3
tp12093
a(Vcavern
p12094
g62
tp12095
a(g10
g11
tp12096
a(VAlas
p12097
g6
tp12098
a(g630
g412
tp12099
ag15
aa(lp12100
(Vthe
p12101
g3
tp12102
a(Vgrim
p12103
g52
tp12104
a(Vlegion
p12105
g62
tp12106
a(Vof
p12107
g18
tp12108
a(Vsepulchral
p12109
g52
tp12110
a(Vterrors
p12111
g75
tp12112
a(Vcan
p12113
g129
tp12114
a(Vnot
p12115
g100
tp12116
a(Vbe
p12117
g132
tp12118
a(Vregarded
p12119
g169
tp12120
a(Vas
p12121
g18
tp12122
a(Valtogether
p12123
g100
tp12124
ag15
aa(lp12125
(Vfanciful
p12126
g52
tp12127
a(Vbut
p12128
g59
tp12129
a(g26
g27
tp12130
a(Vlike
p12131
g18
tp12132
a(Vthe
p12133
g3
tp12134
a(VDemons
p12135
g75
tp12136
a(Vin
p12137
g18
tp12138
a(Vwhose
p12139
g6485
tp12140
a(Vcompany
p12141
g62
tp12142
a(VAfrasiab
p12143
g6
tp12144
a(Vmade
p12145
g621
tp12146
a(Vhis
p12147
g1167
tp12148
ag15
aa(lp12149
(Vvoyage
p12150
g62
tp12151
a(Vdown
p12152
g18
tp12153
a(Vthe
p12154
g3
tp12155
a(VOxus
p12156
g6
tp12157
a(g26
g27
tp12158
a(Vthey
p12159
g138
tp12160
a(Vmust
p12161
g129
tp12162
a(Vsleep
p12163
g132
tp12164
a(g26
g27
tp12165
a(Vor
p12166
g59
tp12167
a(Vthey
p12168
g138
tp12169
a(Vwill
p12170
g129
tp12171
a(Vdevour
p12172
g132
tp12173
a(Vus
p12174
g138
tp12175
a(Vthey
p12176
g138
tp12177
ag15
aa(lp12178
(Vmust
p12179
g129
tp12180
a(Vbe
p12181
g132
tp12182
a(Vsuffered
p12183
g169
tp12184
a(Vto
p12185
g147
tp12186
a(Vslumber
p12187
g132
tp12188
a(g26
g27
tp12189
a(Vor
p12190
g59
tp12191
a(Vwe
p12192
g138
tp12193
a(Vperish
p12194
g70
tp12195
a(g10
g11
tp12196
ag15
aa.